ARM GAS  C:\Users\d3bug\AppData\Local\Temp\ccjIQ3di.s 			page 1


   1              		.syntax unified
   2              		.cpu cortex-m3
   3              		.fpu softvfp
   4              		.eabi_attribute 20, 1
   5              		.eabi_attribute 21, 1
   6              		.eabi_attribute 23, 3
   7              		.eabi_attribute 24, 1
   8              		.eabi_attribute 25, 1
   9              		.eabi_attribute 26, 1
  10              		.eabi_attribute 30, 1
  11              		.eabi_attribute 34, 1
  12              		.eabi_attribute 18, 4
  13              		.thumb
  14              		.syntax unified
  15              		.file	"hal_spi.c"
  16              		.text
  17              	.Ltext0:
  18              		.cfi_sections	.debug_frame
  19              		.section	.text.W5500_spi,"ax",%progbits
  20              		.align	2
  21              		.thumb
  22              		.thumb_func
  23              		.type	W5500_spi, %function
  24              	W5500_spi:
  25              	.LFB63:
  26              		.file 1 "hal_spi.c"
   1:hal_spi.c     **** #include "project.h"
   2:hal_spi.c     **** 
   3:hal_spi.c     **** #include "hal_spi.h"
   4:hal_spi.c     **** #include "common.h"
   5:hal_spi.c     **** 
   6:hal_spi.c     **** enum {
   7:hal_spi.c     ****     _SPI_MODE_POS       = 0,
   8:hal_spi.c     ****     _ACCESS_MODE_POS    = 2,
   9:hal_spi.c     ****     _BLOCK_POS          = 3,
  10:hal_spi.c     **** };
  11:hal_spi.c     **** 
  12:hal_spi.c     **** static void W5500_spi(const block block, const uint16_t address,
  13:hal_spi.c     ****                       const access_mode access_mode, const spi_operation_mode spi_mode,
  14:hal_spi.c     ****                       uint8_t *data, const size_t data_size)
  15:hal_spi.c     **** {
  27              		.loc 1 15 0
  28              		.cfi_startproc
  29              		@ args = 8, pretend = 0, frame = 8
  30              		@ frame_needed = 0, uses_anonymous_args = 0
  31              	.LVL0:
  32 0000 F0B5     		push	{r4, r5, r6, r7, lr}
  33              		.cfi_def_cfa_offset 20
  34              		.cfi_offset 4, -20
  35              		.cfi_offset 5, -16
  36              		.cfi_offset 6, -12
  37              		.cfi_offset 7, -8
  38              		.cfi_offset 14, -4
  39 0002 83B0     		sub	sp, sp, #12
  40              		.cfi_def_cfa_offset 32
  41 0004 1746     		mov	r7, r2
  42 0006 089E     		ldr	r6, [sp, #32]
ARM GAS  C:\Users\d3bug\AppData\Local\Temp\ccjIQ3di.s 			page 2


  43 0008 099D     		ldr	r5, [sp, #36]
  16:hal_spi.c     ****     const uint8_t control_phase = (block << _BLOCK_POS) |
  17:hal_spi.c     ****                                   (access_mode << _ACCESS_MODE_POS) |
  44              		.loc 1 17 0
  45 000a 9200     		lsls	r2, r2, #2
  46              	.LVL1:
  16:hal_spi.c     ****     const uint8_t control_phase = (block << _BLOCK_POS) |
  47              		.loc 1 16 0
  48 000c 42EAC000 		orr	r0, r2, r0, lsl #3
  49              	.LVL2:
  50 0010 0343     		orrs	r3, r3, r0
  51              	.LVL3:
  18:hal_spi.c     ****                                   (spi_mode << _SPI_MODE_POS);
  19:hal_spi.c     **** 
  20:hal_spi.c     ****     const uint8_t addr_ctrl_phase[] = {
  21:hal_spi.c     ****         HI8(address), LO8(address), control_phase
  52              		.loc 1 21 0
  53 0012 0A0A     		lsrs	r2, r1, #8
  20:hal_spi.c     ****         HI8(address), LO8(address), control_phase
  54              		.loc 1 20 0
  55 0014 8DF80420 		strb	r2, [sp, #4]
  56 0018 8DF80510 		strb	r1, [sp, #5]
  57 001c 8DF80630 		strb	r3, [sp, #6]
  22:hal_spi.c     ****     };
  23:hal_spi.c     **** 
  24:hal_spi.c     ****     SPI_ClearFIFO();
  58              		.loc 1 24 0
  59 0020 FFF7FEFF 		bl	SPI_ClearFIFO
  60              	.LVL4:
  25:hal_spi.c     ****     
  26:hal_spi.c     ****     SS_Write(0);
  61              		.loc 1 26 0
  62 0024 0020     		movs	r0, #0
  63 0026 FFF7FEFF 		bl	SS_Write
  64              	.LVL5:
  65              	.LBB2:
  27:hal_spi.c     ****     
  28:hal_spi.c     ****     for (size_t i = 0; i < sizeof(addr_ctrl_phase); i++) {
  66              		.loc 1 28 0
  67 002a 0024     		movs	r4, #0
  68 002c 0BE0     		b	.L2
  69              	.LVL6:
  70              	.L4:
  29:hal_spi.c     ****         SPI_WriteTxData(addr_ctrl_phase[i]);
  71              		.loc 1 29 0
  72 002e 02AB     		add	r3, sp, #8
  73 0030 2344     		add	r3, r3, r4
  74 0032 13F8040C 		ldrb	r0, [r3, #-4]	@ zero_extendqisi2
  75 0036 FFF7FEFF 		bl	SPI_WriteTxData
  76              	.LVL7:
  77              	.L3:
  30:hal_spi.c     ****         while (!(SPI_ReadTxStatus() & SPI_STS_BYTE_COMPLETE)) {
  78              		.loc 1 30 0 discriminator 1
  79 003a FFF7FEFF 		bl	SPI_ReadTxStatus
  80              	.LVL8:
  81 003e 10F0080F 		tst	r0, #8
  82 0042 FAD0     		beq	.L3
ARM GAS  C:\Users\d3bug\AppData\Local\Temp\ccjIQ3di.s 			page 3


  28:hal_spi.c     ****         SPI_WriteTxData(addr_ctrl_phase[i]);
  83              		.loc 1 28 0 discriminator 2
  84 0044 0134     		adds	r4, r4, #1
  85              	.LVL9:
  86              	.L2:
  28:hal_spi.c     ****         SPI_WriteTxData(addr_ctrl_phase[i]);
  87              		.loc 1 28 0 is_stmt 0 discriminator 1
  88 0046 022C     		cmp	r4, #2
  89 0048 F1D9     		bls	.L4
  90              	.LBE2:
  31:hal_spi.c     ****         }
  32:hal_spi.c     ****     }
  33:hal_spi.c     ****     SPI_ClearFIFO();
  91              		.loc 1 33 0 is_stmt 1
  92 004a FFF7FEFF 		bl	SPI_ClearFIFO
  93              	.LVL10:
  34:hal_spi.c     **** 
  35:hal_spi.c     ****     if (ACCESS_MODE_READ == access_mode) {
  94              		.loc 1 35 0
  95 004e 77B1     		cbz	r7, .L12
  96 0050 0024     		movs	r4, #0
  97              	.LVL11:
  98 0052 19E0     		b	.L6
  99              	.LVL12:
 100              	.L8:
 101              	.LBB3:
  36:hal_spi.c     ****         for (size_t i = 0; i < data_size; i++) {
  37:hal_spi.c     ****             SPI_WriteTxData(0xFF);
 102              		.loc 1 37 0
 103 0054 FF20     		movs	r0, #255
 104 0056 FFF7FEFF 		bl	SPI_WriteTxData
 105              	.LVL13:
 106              	.L7:
  38:hal_spi.c     ****             while (!(SPI_ReadTxStatus() & SPI_STS_BYTE_COMPLETE)) {
 107              		.loc 1 38 0 discriminator 1
 108 005a FFF7FEFF 		bl	SPI_ReadTxStatus
 109              	.LVL14:
 110 005e 10F0080F 		tst	r0, #8
 111 0062 FAD0     		beq	.L7
  39:hal_spi.c     ****             }
  40:hal_spi.c     ****             data[i] = SPI_ReadRxData();
 112              		.loc 1 40 0 discriminator 2
 113 0064 FFF7FEFF 		bl	SPI_ReadRxData
 114              	.LVL15:
 115 0068 3055     		strb	r0, [r6, r4]
  36:hal_spi.c     ****             SPI_WriteTxData(0xFF);
 116              		.loc 1 36 0 discriminator 2
 117 006a 0134     		adds	r4, r4, #1
 118              	.LVL16:
 119 006c 00E0     		b	.L5
 120              	.LVL17:
 121              	.L12:
 122              	.LBE3:
 123 006e 0024     		movs	r4, #0
 124              	.LVL18:
 125              	.L5:
 126              	.LBB4:
ARM GAS  C:\Users\d3bug\AppData\Local\Temp\ccjIQ3di.s 			page 4


  36:hal_spi.c     ****             SPI_WriteTxData(0xFF);
 127              		.loc 1 36 0 is_stmt 0 discriminator 1
 128 0070 AC42     		cmp	r4, r5
 129 0072 EFD3     		bcc	.L8
 130 0074 0AE0     		b	.L9
 131              	.LVL19:
 132              	.L11:
 133              	.LBE4:
 134              	.LBB5:
  41:hal_spi.c     ****         }
  42:hal_spi.c     ****     } else { /* ACCESS_MODE_WRITE */
  43:hal_spi.c     ****         for (size_t i = 0; i < data_size; i++) {
  44:hal_spi.c     ****             SPI_WriteTxData(data[i]);
 135              		.loc 1 44 0 is_stmt 1
 136 0076 305D     		ldrb	r0, [r6, r4]	@ zero_extendqisi2
 137 0078 FFF7FEFF 		bl	SPI_WriteTxData
 138              	.LVL20:
 139              	.L10:
  45:hal_spi.c     ****             while (!(SPI_ReadTxStatus() & SPI_STS_BYTE_COMPLETE)) {
 140              		.loc 1 45 0 discriminator 1
 141 007c FFF7FEFF 		bl	SPI_ReadTxStatus
 142              	.LVL21:
 143 0080 10F0080F 		tst	r0, #8
 144 0084 FAD0     		beq	.L10
  43:hal_spi.c     ****             SPI_WriteTxData(data[i]);
 145              		.loc 1 43 0 discriminator 2
 146 0086 0134     		adds	r4, r4, #1
 147              	.LVL22:
 148              	.L6:
  43:hal_spi.c     ****             SPI_WriteTxData(data[i]);
 149              		.loc 1 43 0 is_stmt 0 discriminator 1
 150 0088 AC42     		cmp	r4, r5
 151 008a F4D3     		bcc	.L11
 152              	.LVL23:
 153              	.L9:
 154              	.LBE5:
  46:hal_spi.c     ****             }
  47:hal_spi.c     ****         }
  48:hal_spi.c     ****     }
  49:hal_spi.c     ****     
  50:hal_spi.c     ****     SS_Write(1);
 155              		.loc 1 50 0 is_stmt 1
 156 008c 0120     		movs	r0, #1
 157 008e FFF7FEFF 		bl	SS_Write
 158              	.LVL24:
  51:hal_spi.c     **** }
 159              		.loc 1 51 0
 160 0092 03B0     		add	sp, sp, #12
 161              		.cfi_def_cfa_offset 20
 162              		@ sp needed
 163 0094 F0BD     		pop	{r4, r5, r6, r7, pc}
 164              		.cfi_endproc
 165              	.LFE63:
 166              		.size	W5500_spi, .-W5500_spi
 167 0096 00BF     		.section	.text.W5500_spi_read,"ax",%progbits
 168              		.align	2
 169              		.global	W5500_spi_read
ARM GAS  C:\Users\d3bug\AppData\Local\Temp\ccjIQ3di.s 			page 5


 170              		.thumb
 171              		.thumb_func
 172              		.type	W5500_spi_read, %function
 173              	W5500_spi_read:
 174              	.LFB64:
  52:hal_spi.c     **** 
  53:hal_spi.c     **** void W5500_spi_read(const block block, const uint16_t address,
  54:hal_spi.c     ****                            uint8_t *data, const size_t data_size)
  55:hal_spi.c     **** {
 175              		.loc 1 55 0
 176              		.cfi_startproc
 177              		@ args = 0, pretend = 0, frame = 0
 178              		@ frame_needed = 0, uses_anonymous_args = 0
 179              	.LVL25:
  56:hal_spi.c     ****     if ((NULL == data) || (0 == data_size)) {
 180              		.loc 1 56 0
 181 0000 9AB1     		cbz	r2, .L17
  55:hal_spi.c     ****     if ((NULL == data) || (0 == data_size)) {
 182              		.loc 1 55 0 discriminator 1
 183 0002 F0B5     		push	{r4, r5, r6, r7, lr}
 184              		.cfi_def_cfa_offset 20
 185              		.cfi_offset 4, -20
 186              		.cfi_offset 5, -16
 187              		.cfi_offset 6, -12
 188              		.cfi_offset 7, -8
 189              		.cfi_offset 14, -4
 190 0004 83B0     		sub	sp, sp, #12
 191              		.cfi_def_cfa_offset 32
 192              		.loc 1 56 0 discriminator 1
 193 0006 73B1     		cbz	r3, .L14
 194 0008 1746     		mov	r7, r2
 195 000a 1C46     		mov	r4, r3
 196 000c 0E46     		mov	r6, r1
 197 000e 0546     		mov	r5, r0
  57:hal_spi.c     ****         return;
  58:hal_spi.c     ****     }
  59:hal_spi.c     ****     
  60:hal_spi.c     ****     if (_is_invalid_block(block)) {
 198              		.loc 1 60 0
 199 0010 FFF7FEFF 		bl	_is_invalid_block
 200              	.LVL26:
 201 0014 38B9     		cbnz	r0, .L14
  61:hal_spi.c     ****         return;
  62:hal_spi.c     ****     }
  63:hal_spi.c     **** #if 1
  64:hal_spi.c     ****     W5500_spi(block, address, ACCESS_MODE_READ, SPI_OPERATION_MODE_VDM, data, data_size);
 202              		.loc 1 64 0
 203 0016 0194     		str	r4, [sp, #4]
 204 0018 0097     		str	r7, [sp]
 205 001a 0023     		movs	r3, #0
 206 001c 1A46     		mov	r2, r3
 207 001e 3146     		mov	r1, r6
 208 0020 2846     		mov	r0, r5
 209 0022 FFF7FEFF 		bl	W5500_spi
 210              	.LVL27:
 211              	.L14:
  65:hal_spi.c     **** #else
ARM GAS  C:\Users\d3bug\AppData\Local\Temp\ccjIQ3di.s 			page 6


  66:hal_spi.c     ****     const uint8_t control_phase = (block << _BLOCK_POS) |
  67:hal_spi.c     ****                                   (ACCESS_MODE_READ << _ACCESS_MODE_POS) |
  68:hal_spi.c     ****                                   (SPI_OPERATION_MODE_VDM << _SPI_MODE_POS);
  69:hal_spi.c     **** 
  70:hal_spi.c     ****     const uint8_t addr_ctrl_phase[] = {
  71:hal_spi.c     ****         HI8(address), LO8(address), control_phase
  72:hal_spi.c     ****     };
  73:hal_spi.c     **** 
  74:hal_spi.c     ****     SPI_ClearFIFO();
  75:hal_spi.c     ****     
  76:hal_spi.c     ****     SS_Write(0);
  77:hal_spi.c     ****     
  78:hal_spi.c     ****     for (size_t i = 0; i < sizeof(addr_ctrl_phase); i++) {
  79:hal_spi.c     ****         SPI_WriteTxData(addr_ctrl_phase[i]);
  80:hal_spi.c     ****         while (!(SPI_ReadTxStatus() & SPI_STS_BYTE_COMPLETE)) {
  81:hal_spi.c     ****         }
  82:hal_spi.c     ****     }
  83:hal_spi.c     ****     SPI_ClearFIFO();
  84:hal_spi.c     **** 
  85:hal_spi.c     ****     for (size_t i = 0; i < data_size; i++) {
  86:hal_spi.c     ****         SPI_WriteTxData(0xFF);
  87:hal_spi.c     ****         while (!(SPI_ReadTxStatus() & SPI_STS_BYTE_COMPLETE)) {
  88:hal_spi.c     ****         }
  89:hal_spi.c     ****         data[i] = SPI_ReadRxData();
  90:hal_spi.c     ****     }
  91:hal_spi.c     ****     
  92:hal_spi.c     ****     SS_Write(1);
  93:hal_spi.c     **** #endif
  94:hal_spi.c     **** }
 212              		.loc 1 94 0
 213 0026 03B0     		add	sp, sp, #12
 214              		.cfi_def_cfa_offset 20
 215              		@ sp needed
 216 0028 F0BD     		pop	{r4, r5, r6, r7, pc}
 217              	.LVL28:
 218              	.L17:
 219              		.cfi_def_cfa_offset 0
 220              		.cfi_restore 4
 221              		.cfi_restore 5
 222              		.cfi_restore 6
 223              		.cfi_restore 7
 224              		.cfi_restore 14
 225 002a 7047     		bx	lr
 226              		.cfi_endproc
 227              	.LFE64:
 228              		.size	W5500_spi_read, .-W5500_spi_read
 229              		.section	.text.W5500_spi_write,"ax",%progbits
 230              		.align	2
 231              		.global	W5500_spi_write
 232              		.thumb
 233              		.thumb_func
 234              		.type	W5500_spi_write, %function
 235              	W5500_spi_write:
 236              	.LFB65:
  95:hal_spi.c     **** 
  96:hal_spi.c     **** void W5500_spi_write(const block block, const uint16_t address,
  97:hal_spi.c     ****                      const uint8_t *data, const size_t data_size)
ARM GAS  C:\Users\d3bug\AppData\Local\Temp\ccjIQ3di.s 			page 7


  98:hal_spi.c     **** {
 237              		.loc 1 98 0
 238              		.cfi_startproc
 239              		@ args = 0, pretend = 0, frame = 0
 240              		@ frame_needed = 0, uses_anonymous_args = 0
 241              	.LVL29:
  99:hal_spi.c     ****     if ((NULL == data) || (0 == data_size)) {
 242              		.loc 1 99 0
 243 0000 9AB1     		cbz	r2, .L21
  98:hal_spi.c     ****     if ((NULL == data) || (0 == data_size)) {
 244              		.loc 1 98 0 discriminator 1
 245 0002 F0B5     		push	{r4, r5, r6, r7, lr}
 246              		.cfi_def_cfa_offset 20
 247              		.cfi_offset 4, -20
 248              		.cfi_offset 5, -16
 249              		.cfi_offset 6, -12
 250              		.cfi_offset 7, -8
 251              		.cfi_offset 14, -4
 252 0004 83B0     		sub	sp, sp, #12
 253              		.cfi_def_cfa_offset 32
 254              		.loc 1 99 0 discriminator 1
 255 0006 73B1     		cbz	r3, .L18
 256 0008 1746     		mov	r7, r2
 257 000a 1C46     		mov	r4, r3
 258 000c 0E46     		mov	r6, r1
 259 000e 0546     		mov	r5, r0
 100:hal_spi.c     ****         return;
 101:hal_spi.c     ****     }
 102:hal_spi.c     ****     
 103:hal_spi.c     ****     if (_is_invalid_block(block)) {
 260              		.loc 1 103 0
 261 0010 FFF7FEFF 		bl	_is_invalid_block
 262              	.LVL30:
 263 0014 38B9     		cbnz	r0, .L18
 104:hal_spi.c     ****         return;
 105:hal_spi.c     ****     }
 106:hal_spi.c     **** #if 1
 107:hal_spi.c     ****     W5500_spi(block, address, ACCESS_MODE_WRITE, SPI_OPERATION_MODE_VDM, data, data_size);
 264              		.loc 1 107 0
 265 0016 0194     		str	r4, [sp, #4]
 266 0018 0097     		str	r7, [sp]
 267 001a 0023     		movs	r3, #0
 268 001c 0122     		movs	r2, #1
 269 001e 3146     		mov	r1, r6
 270 0020 2846     		mov	r0, r5
 271 0022 FFF7FEFF 		bl	W5500_spi
 272              	.LVL31:
 273              	.L18:
 108:hal_spi.c     **** #else
 109:hal_spi.c     ****     const uint8_t control_phase = (block << _BLOCK_POS) |
 110:hal_spi.c     ****                                   (ACCESS_MODE_WRITE << _ACCESS_MODE_POS) |
 111:hal_spi.c     ****                                   (SPI_OPERATION_MODE_VDM << _SPI_MODE_POS);
 112:hal_spi.c     **** 
 113:hal_spi.c     ****     const uint8_t addr_ctrl_phase[] = {
 114:hal_spi.c     ****         HI8(address), LO8(address), control_phase
 115:hal_spi.c     ****     };
 116:hal_spi.c     **** 
ARM GAS  C:\Users\d3bug\AppData\Local\Temp\ccjIQ3di.s 			page 8


 117:hal_spi.c     ****     SPI_ClearFIFO();
 118:hal_spi.c     ****     
 119:hal_spi.c     ****     SS_Write(0);
 120:hal_spi.c     ****     
 121:hal_spi.c     ****     for (size_t i = 0; i < sizeof(addr_ctrl_phase); i++) {
 122:hal_spi.c     ****         SPI_WriteTxData(addr_ctrl_phase[i]);
 123:hal_spi.c     ****         while (!(SPI_ReadTxStatus() & SPI_STS_BYTE_COMPLETE)) {
 124:hal_spi.c     ****         }
 125:hal_spi.c     ****     }
 126:hal_spi.c     ****     SPI_ClearFIFO();
 127:hal_spi.c     **** 
 128:hal_spi.c     ****     for (size_t i = 0; i < data_size; i++) {
 129:hal_spi.c     ****         SPI_WriteTxData(data[i]);
 130:hal_spi.c     ****         while (!(SPI_ReadTxStatus() & SPI_STS_BYTE_COMPLETE)) {
 131:hal_spi.c     ****         }
 132:hal_spi.c     ****     }
 133:hal_spi.c     ****     
 134:hal_spi.c     ****     SS_Write(1);
 135:hal_spi.c     **** #endif
 136:hal_spi.c     **** }
 274              		.loc 1 136 0
 275 0026 03B0     		add	sp, sp, #12
 276              		.cfi_def_cfa_offset 20
 277              		@ sp needed
 278 0028 F0BD     		pop	{r4, r5, r6, r7, pc}
 279              	.LVL32:
 280              	.L21:
 281              		.cfi_def_cfa_offset 0
 282              		.cfi_restore 4
 283              		.cfi_restore 5
 284              		.cfi_restore 6
 285              		.cfi_restore 7
 286              		.cfi_restore 14
 287 002a 7047     		bx	lr
 288              		.cfi_endproc
 289              	.LFE65:
 290              		.size	W5500_spi_write, .-W5500_spi_write
 291              		.section	.text.W5500_spi_read_byte,"ax",%progbits
 292              		.align	2
 293              		.global	W5500_spi_read_byte
 294              		.thumb
 295              		.thumb_func
 296              		.type	W5500_spi_read_byte, %function
 297              	W5500_spi_read_byte:
 298              	.LFB66:
 137:hal_spi.c     **** 
 138:hal_spi.c     **** uint8_t W5500_spi_read_byte(const block block, const uint16_t address)
 139:hal_spi.c     **** {
 299              		.loc 1 139 0
 300              		.cfi_startproc
 301              		@ args = 0, pretend = 0, frame = 8
 302              		@ frame_needed = 0, uses_anonymous_args = 0
 303              	.LVL33:
 304 0000 30B5     		push	{r4, r5, lr}
 305              		.cfi_def_cfa_offset 12
 306              		.cfi_offset 4, -12
 307              		.cfi_offset 5, -8
ARM GAS  C:\Users\d3bug\AppData\Local\Temp\ccjIQ3di.s 			page 9


 308              		.cfi_offset 14, -4
 309 0002 83B0     		sub	sp, sp, #12
 310              		.cfi_def_cfa_offset 24
 311 0004 0446     		mov	r4, r0
 312 0006 0D46     		mov	r5, r1
 313              	.LVL34:
 140:hal_spi.c     ****     uint8_t result = 0;
 141:hal_spi.c     ****     
 142:hal_spi.c     ****     if (_is_invalid_block(block)) {
 314              		.loc 1 142 0
 315 0008 FFF7FEFF 		bl	_is_invalid_block
 316              	.LVL35:
 317 000c 70BB     		cbnz	r0, .L28
 143:hal_spi.c     ****         return 0;
 144:hal_spi.c     ****     }
 145:hal_spi.c     ****     
 146:hal_spi.c     ****     const uint8_t control_phase = (block << _BLOCK_POS) |
 318              		.loc 1 146 0
 319 000e E400     		lsls	r4, r4, #3
 320              	.LVL36:
 147:hal_spi.c     ****                                   (ACCESS_MODE_READ << _ACCESS_MODE_POS) |
 148:hal_spi.c     ****                                   (SPI_OPERATION_MODE_VDM << _SPI_MODE_POS);
 149:hal_spi.c     **** 
 150:hal_spi.c     ****     const uint8_t addr_ctrl_phase[] = {
 151:hal_spi.c     ****         HI8(address), LO8(address), control_phase
 321              		.loc 1 151 0
 322 0010 2B0A     		lsrs	r3, r5, #8
 150:hal_spi.c     ****         HI8(address), LO8(address), control_phase
 323              		.loc 1 150 0
 324 0012 8DF80430 		strb	r3, [sp, #4]
 325 0016 8DF80550 		strb	r5, [sp, #5]
 326 001a 8DF80640 		strb	r4, [sp, #6]
 152:hal_spi.c     ****     };
 153:hal_spi.c     **** 
 154:hal_spi.c     ****     SPI_ClearFIFO();
 327              		.loc 1 154 0
 328 001e FFF7FEFF 		bl	SPI_ClearFIFO
 329              	.LVL37:
 155:hal_spi.c     ****     
 156:hal_spi.c     ****     SS_Write(0);
 330              		.loc 1 156 0
 331 0022 0020     		movs	r0, #0
 332 0024 FFF7FEFF 		bl	SS_Write
 333              	.LVL38:
 334              	.LBB6:
 157:hal_spi.c     ****     
 158:hal_spi.c     ****     for (size_t i = 0; i < sizeof(addr_ctrl_phase); i++) {
 335              		.loc 1 158 0
 336 0028 0024     		movs	r4, #0
 337              	.LVL39:
 338 002a 0BE0     		b	.L24
 339              	.LVL40:
 340              	.L26:
 159:hal_spi.c     ****         SPI_WriteTxData(addr_ctrl_phase[i]);
 341              		.loc 1 159 0
 342 002c 02AB     		add	r3, sp, #8
 343 002e 2344     		add	r3, r3, r4
ARM GAS  C:\Users\d3bug\AppData\Local\Temp\ccjIQ3di.s 			page 10


 344 0030 13F8040C 		ldrb	r0, [r3, #-4]	@ zero_extendqisi2
 345 0034 FFF7FEFF 		bl	SPI_WriteTxData
 346              	.LVL41:
 347              	.L25:
 160:hal_spi.c     ****         while (!(SPI_ReadTxStatus() & SPI_STS_BYTE_COMPLETE)) {
 348              		.loc 1 160 0 discriminator 1
 349 0038 FFF7FEFF 		bl	SPI_ReadTxStatus
 350              	.LVL42:
 351 003c 10F0080F 		tst	r0, #8
 352 0040 FAD0     		beq	.L25
 158:hal_spi.c     ****         SPI_WriteTxData(addr_ctrl_phase[i]);
 353              		.loc 1 158 0 discriminator 2
 354 0042 0134     		adds	r4, r4, #1
 355              	.LVL43:
 356              	.L24:
 158:hal_spi.c     ****         SPI_WriteTxData(addr_ctrl_phase[i]);
 357              		.loc 1 158 0 is_stmt 0 discriminator 1
 358 0044 022C     		cmp	r4, #2
 359 0046 F1D9     		bls	.L26
 360              	.LBE6:
 161:hal_spi.c     ****         }
 162:hal_spi.c     ****     }
 163:hal_spi.c     ****     SPI_ClearFIFO();
 361              		.loc 1 163 0 is_stmt 1
 362 0048 FFF7FEFF 		bl	SPI_ClearFIFO
 363              	.LVL44:
 164:hal_spi.c     **** 
 165:hal_spi.c     ****     SPI_WriteTxData(0xFF);
 364              		.loc 1 165 0
 365 004c FF20     		movs	r0, #255
 366 004e FFF7FEFF 		bl	SPI_WriteTxData
 367              	.LVL45:
 368              	.L27:
 166:hal_spi.c     ****     while (!(SPI_ReadTxStatus() & SPI_STS_BYTE_COMPLETE)) {
 369              		.loc 1 166 0 discriminator 1
 370 0052 FFF7FEFF 		bl	SPI_ReadTxStatus
 371              	.LVL46:
 372 0056 10F0080F 		tst	r0, #8
 373 005a FAD0     		beq	.L27
 167:hal_spi.c     ****     }
 168:hal_spi.c     ****     result = SPI_ReadRxData();
 374              		.loc 1 168 0
 375 005c FFF7FEFF 		bl	SPI_ReadRxData
 376              	.LVL47:
 377 0060 0446     		mov	r4, r0
 378              	.LVL48:
 169:hal_spi.c     ****     
 170:hal_spi.c     ****     SS_Write(1);
 379              		.loc 1 170 0
 380 0062 0120     		movs	r0, #1
 381 0064 FFF7FEFF 		bl	SS_Write
 382              	.LVL49:
 171:hal_spi.c     ****     
 172:hal_spi.c     ****     return result;
 383              		.loc 1 172 0
 384 0068 2046     		mov	r0, r4
 385 006a 00E0     		b	.L23
ARM GAS  C:\Users\d3bug\AppData\Local\Temp\ccjIQ3di.s 			page 11


 386              	.LVL50:
 387              	.L28:
 143:hal_spi.c     ****     }
 388              		.loc 1 143 0
 389 006c 0020     		movs	r0, #0
 390              	.LVL51:
 391              	.L23:
 173:hal_spi.c     **** }
 392              		.loc 1 173 0
 393 006e 03B0     		add	sp, sp, #12
 394              		.cfi_def_cfa_offset 12
 395              		@ sp needed
 396 0070 30BD     		pop	{r4, r5, pc}
 397              		.cfi_endproc
 398              	.LFE66:
 399              		.size	W5500_spi_read_byte, .-W5500_spi_read_byte
 400 0072 00BF     		.section	.text.W5500_spi_write_byte,"ax",%progbits
 401              		.align	2
 402              		.global	W5500_spi_write_byte
 403              		.thumb
 404              		.thumb_func
 405              		.type	W5500_spi_write_byte, %function
 406              	W5500_spi_write_byte:
 407              	.LFB67:
 174:hal_spi.c     **** 
 175:hal_spi.c     **** void W5500_spi_write_byte(const block block, const uint16_t address, uint8_t data)
 176:hal_spi.c     **** {
 408              		.loc 1 176 0
 409              		.cfi_startproc
 410              		@ args = 0, pretend = 0, frame = 8
 411              		@ frame_needed = 0, uses_anonymous_args = 0
 412              	.LVL52:
 413 0000 70B5     		push	{r4, r5, r6, lr}
 414              		.cfi_def_cfa_offset 16
 415              		.cfi_offset 4, -16
 416              		.cfi_offset 5, -12
 417              		.cfi_offset 6, -8
 418              		.cfi_offset 14, -4
 419 0002 82B0     		sub	sp, sp, #8
 420              		.cfi_def_cfa_offset 24
 421 0004 0446     		mov	r4, r0
 422 0006 0D46     		mov	r5, r1
 423 0008 1646     		mov	r6, r2
 177:hal_spi.c     ****     if (_is_invalid_block(block)) {
 424              		.loc 1 177 0
 425 000a FFF7FEFF 		bl	_is_invalid_block
 426              	.LVL53:
 427 000e 58BB     		cbnz	r0, .L30
 178:hal_spi.c     ****         return;
 179:hal_spi.c     ****     }
 180:hal_spi.c     **** 
 181:hal_spi.c     ****     const uint8_t control_phase = (block << _BLOCK_POS) |
 428              		.loc 1 181 0
 429 0010 E400     		lsls	r4, r4, #3
 430 0012 44F00404 		orr	r4, r4, #4
 431              	.LVL54:
 182:hal_spi.c     ****                                   (ACCESS_MODE_WRITE << _ACCESS_MODE_POS) |
ARM GAS  C:\Users\d3bug\AppData\Local\Temp\ccjIQ3di.s 			page 12


 183:hal_spi.c     ****                                   (SPI_OPERATION_MODE_VDM << _SPI_MODE_POS);
 184:hal_spi.c     **** 
 185:hal_spi.c     ****     const uint8_t addr_ctrl_phase[] = {
 186:hal_spi.c     ****         HI8(address), LO8(address), control_phase
 432              		.loc 1 186 0
 433 0016 2B0A     		lsrs	r3, r5, #8
 185:hal_spi.c     ****         HI8(address), LO8(address), control_phase
 434              		.loc 1 185 0
 435 0018 8DF80430 		strb	r3, [sp, #4]
 436 001c 8DF80550 		strb	r5, [sp, #5]
 437 0020 8DF80640 		strb	r4, [sp, #6]
 187:hal_spi.c     ****     };
 188:hal_spi.c     **** 
 189:hal_spi.c     ****     SPI_ClearFIFO();
 438              		.loc 1 189 0
 439 0024 FFF7FEFF 		bl	SPI_ClearFIFO
 440              	.LVL55:
 190:hal_spi.c     ****     
 191:hal_spi.c     ****     SS_Write(0);
 441              		.loc 1 191 0
 442 0028 0020     		movs	r0, #0
 443 002a FFF7FEFF 		bl	SS_Write
 444              	.LVL56:
 445              	.LBB7:
 192:hal_spi.c     ****     
 193:hal_spi.c     ****     for (size_t i = 0; i < sizeof(addr_ctrl_phase); i++) {
 446              		.loc 1 193 0
 447 002e 0024     		movs	r4, #0
 448              	.LVL57:
 449 0030 0BE0     		b	.L32
 450              	.LVL58:
 451              	.L34:
 194:hal_spi.c     ****         SPI_WriteTxData(addr_ctrl_phase[i]);
 452              		.loc 1 194 0
 453 0032 02AB     		add	r3, sp, #8
 454 0034 2344     		add	r3, r3, r4
 455 0036 13F8040C 		ldrb	r0, [r3, #-4]	@ zero_extendqisi2
 456 003a FFF7FEFF 		bl	SPI_WriteTxData
 457              	.LVL59:
 458              	.L33:
 195:hal_spi.c     ****         while (!(SPI_ReadTxStatus() & SPI_STS_BYTE_COMPLETE)) {
 459              		.loc 1 195 0 discriminator 1
 460 003e FFF7FEFF 		bl	SPI_ReadTxStatus
 461              	.LVL60:
 462 0042 10F0080F 		tst	r0, #8
 463 0046 FAD0     		beq	.L33
 193:hal_spi.c     ****         SPI_WriteTxData(addr_ctrl_phase[i]);
 464              		.loc 1 193 0 discriminator 2
 465 0048 0134     		adds	r4, r4, #1
 466              	.LVL61:
 467              	.L32:
 193:hal_spi.c     ****         SPI_WriteTxData(addr_ctrl_phase[i]);
 468              		.loc 1 193 0 is_stmt 0 discriminator 1
 469 004a 022C     		cmp	r4, #2
 470 004c F1D9     		bls	.L34
 471              	.LBE7:
 196:hal_spi.c     ****         }
ARM GAS  C:\Users\d3bug\AppData\Local\Temp\ccjIQ3di.s 			page 13


 197:hal_spi.c     ****     }
 198:hal_spi.c     ****     SPI_ClearFIFO();
 472              		.loc 1 198 0 is_stmt 1
 473 004e FFF7FEFF 		bl	SPI_ClearFIFO
 474              	.LVL62:
 199:hal_spi.c     **** 
 200:hal_spi.c     ****     SPI_WriteTxData(data);
 475              		.loc 1 200 0
 476 0052 3046     		mov	r0, r6
 477 0054 FFF7FEFF 		bl	SPI_WriteTxData
 478              	.LVL63:
 479              	.L35:
 201:hal_spi.c     ****     while (!(SPI_ReadTxStatus() & SPI_STS_BYTE_COMPLETE)) {
 480              		.loc 1 201 0 discriminator 1
 481 0058 FFF7FEFF 		bl	SPI_ReadTxStatus
 482              	.LVL64:
 483 005c 10F0080F 		tst	r0, #8
 484 0060 FAD0     		beq	.L35
 202:hal_spi.c     ****     }
 203:hal_spi.c     ****     
 204:hal_spi.c     ****     SS_Write(1);
 485              		.loc 1 204 0
 486 0062 0120     		movs	r0, #1
 487 0064 FFF7FEFF 		bl	SS_Write
 488              	.LVL65:
 489              	.L30:
 205:hal_spi.c     **** }
 490              		.loc 1 205 0
 491 0068 02B0     		add	sp, sp, #8
 492              		.cfi_def_cfa_offset 16
 493              		@ sp needed
 494 006a 70BD     		pop	{r4, r5, r6, pc}
 495              		.cfi_endproc
 496              	.LFE67:
 497              		.size	W5500_spi_write_byte, .-W5500_spi_write_byte
 498              		.text
 499              	.Letext0:
 500              		.file 2 "c:\\program files (x86)\\cypress\\psoc creator\\4.2\\psoc creator\\import\\gnu\\arm\\5.4.
 501              		.file 3 "c:\\program files (x86)\\cypress\\psoc creator\\4.2\\psoc creator\\import\\gnu\\arm\\5.4.
 502              		.file 4 "Generated_Source\\PSoC5/cytypes.h"
 503              		.file 5 "c:\\program files (x86)\\cypress\\psoc creator\\4.2\\psoc creator\\import\\gnu\\arm\\5.4.
 504              		.file 6 "common.h"
 505              		.file 7 "Generated_Source\\PSoC5/SPI.h"
 506              		.file 8 "Generated_Source\\PSoC5/SS.h"
 507              		.file 9 "Generated_Source\\PSoC5/core_cm3.h"