ARM GAS  C:\Users\d3bug\AppData\Local\Temp\cc5QWWJq.s 			page 1


   1              		.syntax unified
   2              		.cpu cortex-m3
   3              		.fpu softvfp
   4              		.eabi_attribute 20, 1
   5              		.eabi_attribute 21, 1
   6              		.eabi_attribute 23, 3
   7              		.eabi_attribute 24, 1
   8              		.eabi_attribute 25, 1
   9              		.eabi_attribute 26, 1
  10              		.eabi_attribute 30, 1
  11              		.eabi_attribute 34, 1
  12              		.eabi_attribute 18, 4
  13              		.thumb
  14              		.syntax unified
  15              		.file	"common.c"
  16              		.text
  17              	.Ltext0:
  18              		.cfi_sections	.debug_frame
  19              		.section	.text.compare_arrays,"ax",%progbits
  20              		.align	2
  21              		.global	compare_arrays
  22              		.thumb
  23              		.thumb_func
  24              		.type	compare_arrays, %function
  25              	compare_arrays:
  26              	.LFB0:
  27              		.file 1 "common.c"
   1:common.c      **** #include "common.h"
   2:common.c      **** 
   3:common.c      **** struct W5500 this;
   4:common.c      **** 
   5:common.c      **** bool compare_arrays(const uint8_t *a, const uint8_t *b, size_t size)
   6:common.c      **** {
  28              		.loc 1 6 0
  29              		.cfi_startproc
  30              		@ args = 0, pretend = 0, frame = 0
  31              		@ frame_needed = 0, uses_anonymous_args = 0
  32              		@ link register save eliminated.
  33              	.LVL0:
  34 0000 70B4     		push	{r4, r5, r6}
  35              		.cfi_def_cfa_offset 12
  36              		.cfi_offset 4, -12
  37              		.cfi_offset 5, -8
  38              		.cfi_offset 6, -4
  39              	.LVL1:
  40              	.LBB2:
   7:common.c      **** #if 1
   8:common.c      ****     bool result = false;
   9:common.c      ****     for (size_t i = 0; (i < size) && (a[i] == b[i]); i++) {
  41              		.loc 1 9 0
  42 0002 0023     		movs	r3, #0
  43              	.LBE2:
   8:common.c      ****     for (size_t i = 0; (i < size) && (a[i] == b[i]); i++) {
  44              		.loc 1 8 0
  45 0004 1E46     		mov	r6, r3
  46              	.LBB3:
  47              		.loc 1 9 0
ARM GAS  C:\Users\d3bug\AppData\Local\Temp\cc5QWWJq.s 			page 2


  48 0006 04E0     		b	.L2
  49              	.LVL2:
  50              	.L5:
  10:common.c      ****         if (i == (size - 1)) {
  51              		.loc 1 10 0
  52 0008 541E     		subs	r4, r2, #1
  53 000a A342     		cmp	r3, r4
  54 000c 00D1     		bne	.L3
  11:common.c      ****             result = true;
  55              		.loc 1 11 0
  56 000e 0126     		movs	r6, #1
  57              	.LVL3:
  58              	.L3:
   9:common.c      ****         if (i == (size - 1)) {
  59              		.loc 1 9 0 discriminator 2
  60 0010 0133     		adds	r3, r3, #1
  61              	.LVL4:
  62              	.L2:
   9:common.c      ****         if (i == (size - 1)) {
  63              		.loc 1 9 0 is_stmt 0 discriminator 1
  64 0012 9342     		cmp	r3, r2
  65 0014 03D2     		bcs	.L4
   9:common.c      ****         if (i == (size - 1)) {
  66              		.loc 1 9 0 discriminator 3
  67 0016 C55C     		ldrb	r5, [r0, r3]	@ zero_extendqisi2
  68 0018 CC5C     		ldrb	r4, [r1, r3]	@ zero_extendqisi2
  69 001a A542     		cmp	r5, r4
  70 001c F4D0     		beq	.L5
  71              	.L4:
  72              	.LBE3:
  12:common.c      ****         }
  13:common.c      ****     }
  14:common.c      **** #else
  15:common.c      ****     bool result = true;
  16:common.c      ****     for (size_t i = 0; i < size; i++) {
  17:common.c      ****         if (a[i] != b[i]) {
  18:common.c      ****             result = false;
  19:common.c      ****             break;
  20:common.c      ****         }
  21:common.c      ****     }
  22:common.c      **** #endif
  23:common.c      ****     
  24:common.c      ****     return result;
  25:common.c      **** }
  73              		.loc 1 25 0 is_stmt 1
  74 001e 3046     		mov	r0, r6
  75              	.LVL5:
  76 0020 70BC     		pop	{r4, r5, r6}
  77              		.cfi_restore 6
  78              		.cfi_restore 5
  79              		.cfi_restore 4
  80              		.cfi_def_cfa_offset 0
  81              	.LVL6:
  82 0022 7047     		bx	lr
  83              		.cfi_endproc
  84              	.LFE0:
  85              		.size	compare_arrays, .-compare_arrays
ARM GAS  C:\Users\d3bug\AppData\Local\Temp\cc5QWWJq.s 			page 3


  86              		.section	.text._is_invalid_block,"ax",%progbits
  87              		.align	2
  88              		.global	_is_invalid_block
  89              		.thumb
  90              		.thumb_func
  91              		.type	_is_invalid_block, %function
  92              	_is_invalid_block:
  93              	.LFB1:
  26:common.c      **** 
  27:common.c      **** bool _is_invalid_block(const block block)
  28:common.c      **** {
  94              		.loc 1 28 0
  95              		.cfi_startproc
  96              		@ args = 0, pretend = 0, frame = 0
  97              		@ frame_needed = 0, uses_anonymous_args = 0
  98              		@ link register save eliminated.
  99              	.LVL7:
  29:common.c      ****     return ((BLOCK_RESERVED_0 == block) || (BLOCK_RESERVED_1 == block) ||
  30:common.c      ****             (BLOCK_RESERVED_2 == block) || (BLOCK_RESERVED_3 == block) ||
  31:common.c      ****             (BLOCK_RESERVED_4 == block) || (BLOCK_RESERVED_5 == block) ||
  32:common.c      ****             (BLOCK_RESERVED_6 == block) || (BLOCK_INVALID <= block));
 100              		.loc 1 32 0
 101 0000 B0F5807F 		cmp	r0, #256
 102 0004 14D0     		beq	.L10
  29:common.c      ****     return ((BLOCK_RESERVED_0 == block) || (BLOCK_RESERVED_1 == block) ||
 103              		.loc 1 29 0
 104 0006 B0F5805F 		cmp	r0, #4096
 105 000a 13D0     		beq	.L11
  29:common.c      ****     return ((BLOCK_RESERVED_0 == block) || (BLOCK_RESERVED_1 == block) ||
 106              		.loc 1 29 0 is_stmt 0 discriminator 1
 107 000c B0F5885F 		cmp	r0, #4352
 108 0010 12D0     		beq	.L12
  30:common.c      ****             (BLOCK_RESERVED_4 == block) || (BLOCK_RESERVED_5 == block) ||
 109              		.loc 1 30 0 is_stmt 1
 110 0012 B0F5803F 		cmp	r0, #65536
 111 0016 11D0     		beq	.L13
  30:common.c      ****             (BLOCK_RESERVED_4 == block) || (BLOCK_RESERVED_5 == block) ||
 112              		.loc 1 30 0 is_stmt 0 discriminator 1
 113 0018 0C4B     		ldr	r3, .L17
 114 001a 9842     		cmp	r0, r3
 115 001c 10D0     		beq	.L14
  31:common.c      ****             (BLOCK_RESERVED_6 == block) || (BLOCK_INVALID <= block));
 116              		.loc 1 31 0 is_stmt 1
 117 001e B0F5883F 		cmp	r0, #69632
 118 0022 0FD0     		beq	.L15
 119              		.loc 1 32 0 discriminator 2
 120 0024 03F6FF73 		addw	r3, r3, #4095
 121 0028 9842     		cmp	r0, r3
 122 002a 0DD9     		bls	.L16
 123              		.loc 1 32 0 is_stmt 0
 124 002c 0120     		movs	r0, #1
 125              	.LVL8:
 126 002e 7047     		bx	lr
 127              	.LVL9:
 128              	.L10:
 129 0030 0120     		movs	r0, #1
 130              	.LVL10:
ARM GAS  C:\Users\d3bug\AppData\Local\Temp\cc5QWWJq.s 			page 4


 131 0032 7047     		bx	lr
 132              	.LVL11:
 133              	.L11:
 134 0034 0120     		movs	r0, #1
 135              	.LVL12:
 136 0036 7047     		bx	lr
 137              	.LVL13:
 138              	.L12:
 139 0038 0120     		movs	r0, #1
 140              	.LVL14:
 141 003a 7047     		bx	lr
 142              	.LVL15:
 143              	.L13:
 144 003c 0120     		movs	r0, #1
 145              	.LVL16:
 146 003e 7047     		bx	lr
 147              	.LVL17:
 148              	.L14:
 149 0040 0120     		movs	r0, #1
 150              	.LVL18:
 151 0042 7047     		bx	lr
 152              	.LVL19:
 153              	.L15:
 154 0044 0120     		movs	r0, #1
 155              	.LVL20:
 156 0046 7047     		bx	lr
 157              	.LVL21:
 158              	.L16:
 159 0048 0020     		movs	r0, #0
 160              	.LVL22:
  33:common.c      **** }
 161              		.loc 1 33 0 is_stmt 1
 162 004a 7047     		bx	lr
 163              	.L18:
 164              		.align	2
 165              	.L17:
 166 004c 00010100 		.word	65792
 167              		.cfi_endproc
 168              	.LFE1:
 169              		.size	_is_invalid_block, .-_is_invalid_block
 170              		.comm	this,18,4
 171              		.text
 172              	.Letext0:
 173              		.file 2 "c:\\program files (x86)\\cypress\\psoc creator\\4.2\\psoc creator\\import\\gnu\\arm\\5.4.
 174              		.file 3 "c:\\program files (x86)\\cypress\\psoc creator\\4.2\\psoc creator\\import\\gnu\\arm\\5.4.
 175              		.file 4 "c:\\program files (x86)\\cypress\\psoc creator\\4.2\\psoc creator\\import\\gnu\\arm\\5.4.
 176              		.file 5 "common.h"