ARM GAS  C:\Users\d3bug\AppData\Local\Temp\ccFiIKb9.s 			page 1


   1              		.syntax unified
   2              		.cpu cortex-m3
   3              		.fpu softvfp
   4              		.eabi_attribute 20, 1
   5              		.eabi_attribute 21, 1
   6              		.eabi_attribute 23, 3
   7              		.eabi_attribute 24, 1
   8              		.eabi_attribute 25, 1
   9              		.eabi_attribute 26, 1
  10              		.eabi_attribute 30, 1
  11              		.eabi_attribute 34, 1
  12              		.eabi_attribute 18, 4
  13              		.thumb
  14              		.syntax unified
  15              		.file	"hal_spi.c"
  16              		.text
  17              	.Ltext0:
  18              		.cfi_sections	.debug_frame
  19              		.section	.text.W5500_spi_read,"ax",%progbits
  20              		.align	2
  21              		.global	W5500_spi_read
  22              		.thumb
  23              		.thumb_func
  24              		.type	W5500_spi_read, %function
  25              	W5500_spi_read:
  26              	.LFB63:
  27              		.file 1 "hal_spi.c"
   1:hal_spi.c     **** #include "project.h"
   2:hal_spi.c     **** 
   3:hal_spi.c     **** #include "hal_spi.h"
   4:hal_spi.c     **** #include "common.h"
   5:hal_spi.c     **** 
   6:hal_spi.c     **** #if 0
   7:hal_spi.c     **** // spi2 hooks
   8:hal_spi.c     **** static void spi_hook_write_byte(const uint8_t *addr_ctrl_phase, const size_t addr_ctrl_phase_size,
   9:hal_spi.c     ****                                 const uint8_t data)
  10:hal_spi.c     **** {
  11:hal_spi.c     ****     SPI_hook_ClearFIFO();
  12:hal_spi.c     ****     
  13:hal_spi.c     ****     SS_hook_Write(0);
  14:hal_spi.c     ****     
  15:hal_spi.c     ****     for (size_t i = 0; i < addr_ctrl_phase_size; i++) {
  16:hal_spi.c     ****         SPI_hook_WriteTxData(addr_ctrl_phase[i]);
  17:hal_spi.c     ****         while (!(SPI_hook_ReadTxStatus() & SPI_hook_STS_BYTE_COMPLETE)) {
  18:hal_spi.c     ****         }
  19:hal_spi.c     ****     }
  20:hal_spi.c     ****     SPI_hook_ClearFIFO();
  21:hal_spi.c     **** 
  22:hal_spi.c     ****     SPI_hook_WriteTxData(data);
  23:hal_spi.c     ****     while (!(SPI_hook_ReadTxStatus() & SPI_hook_STS_BYTE_COMPLETE)) {
  24:hal_spi.c     ****     }
  25:hal_spi.c     ****     
  26:hal_spi.c     ****     SS_hook_Write(1);
  27:hal_spi.c     **** }
  28:hal_spi.c     **** #endif
  29:hal_spi.c     **** 
  30:hal_spi.c     **** enum {
ARM GAS  C:\Users\d3bug\AppData\Local\Temp\ccFiIKb9.s 			page 2


  31:hal_spi.c     ****     _SPI_MODE_POS       = 0,
  32:hal_spi.c     ****     _ACCESS_MODE_POS    = 2,
  33:hal_spi.c     ****     _BLOCK_POS          = 3,
  34:hal_spi.c     **** };
  35:hal_spi.c     **** 
  36:hal_spi.c     **** void W5500_spi_read(const uint8_t block, const uint16_t reg_addr, uint8_t *data, const size_t data_
  37:hal_spi.c     **** {
  28              		.loc 1 37 0
  29              		.cfi_startproc
  30              		@ args = 0, pretend = 0, frame = 8
  31              		@ frame_needed = 0, uses_anonymous_args = 0
  32              	.LVL0:
  33 0000 70B5     		push	{r4, r5, r6, lr}
  34              		.cfi_def_cfa_offset 16
  35              		.cfi_offset 4, -16
  36              		.cfi_offset 5, -12
  37              		.cfi_offset 6, -8
  38              		.cfi_offset 14, -4
  39 0002 82B0     		sub	sp, sp, #8
  40              		.cfi_def_cfa_offset 24
  41 0004 1646     		mov	r6, r2
  42 0006 1D46     		mov	r5, r3
  38:hal_spi.c     ****     const uint8_t control_phase = (block << _BLOCK_POS) |
  43              		.loc 1 38 0
  44 0008 C000     		lsls	r0, r0, #3
  45              	.LVL1:
  39:hal_spi.c     ****                                   (ACCESS_MODE_READ << _ACCESS_MODE_POS) |
  40:hal_spi.c     ****                                   (SPI_OPERATION_MODE_VDM << _SPI_MODE_POS);
  41:hal_spi.c     **** 
  42:hal_spi.c     ****     const uint8_t addr_ctrl_phase[] = {
  43:hal_spi.c     ****         HI8(reg_addr), LO8(reg_addr), control_phase
  46              		.loc 1 43 0
  47 000a 0B0A     		lsrs	r3, r1, #8
  48              	.LVL2:
  42:hal_spi.c     ****         HI8(reg_addr), LO8(reg_addr), control_phase
  49              		.loc 1 42 0
  50 000c 8DF80430 		strb	r3, [sp, #4]
  51 0010 8DF80510 		strb	r1, [sp, #5]
  52 0014 8DF80600 		strb	r0, [sp, #6]
  44:hal_spi.c     ****     };
  45:hal_spi.c     **** 
  46:hal_spi.c     ****     SPI_ClearFIFO();
  53              		.loc 1 46 0
  54 0018 FFF7FEFF 		bl	SPI_ClearFIFO
  55              	.LVL3:
  47:hal_spi.c     ****     
  48:hal_spi.c     ****     // This can go to the SPI Hook ;)
  49:hal_spi.c     ****     // So we will pass the addr_ctrl_phase, this is always 3 bytes
  50:hal_spi.c     ****     // and then the data, which is data_size in VLA mode
  51:hal_spi.c     ****     // spi_hook(uint8_t addr_ctrl_phase, addr_ctrl_phase_size, data, data_size)
  52:hal_spi.c     ****     
  53:hal_spi.c     ****     SS_Write(0);
  56              		.loc 1 53 0
  57 001c 0020     		movs	r0, #0
  58 001e FFF7FEFF 		bl	SS_Write
  59              	.LVL4:
  60              	.LBB2:
ARM GAS  C:\Users\d3bug\AppData\Local\Temp\ccFiIKb9.s 			page 3


  54:hal_spi.c     ****     
  55:hal_spi.c     ****     for (size_t i = 0; i < sizeof(addr_ctrl_phase); i++) {
  61              		.loc 1 55 0
  62 0022 0024     		movs	r4, #0
  63 0024 0BE0     		b	.L2
  64              	.LVL5:
  65              	.L4:
  56:hal_spi.c     ****         SPI_WriteTxData(addr_ctrl_phase[i]);
  66              		.loc 1 56 0
  67 0026 02AB     		add	r3, sp, #8
  68 0028 2344     		add	r3, r3, r4
  69 002a 13F8040C 		ldrb	r0, [r3, #-4]	@ zero_extendqisi2
  70 002e FFF7FEFF 		bl	SPI_WriteTxData
  71              	.LVL6:
  72              	.L3:
  57:hal_spi.c     ****         while (!(SPI_ReadTxStatus() & SPI_STS_BYTE_COMPLETE)) {
  73              		.loc 1 57 0 discriminator 1
  74 0032 FFF7FEFF 		bl	SPI_ReadTxStatus
  75              	.LVL7:
  76 0036 10F0080F 		tst	r0, #8
  77 003a FAD0     		beq	.L3
  55:hal_spi.c     ****         SPI_WriteTxData(addr_ctrl_phase[i]);
  78              		.loc 1 55 0 discriminator 2
  79 003c 0134     		adds	r4, r4, #1
  80              	.LVL8:
  81              	.L2:
  55:hal_spi.c     ****         SPI_WriteTxData(addr_ctrl_phase[i]);
  82              		.loc 1 55 0 is_stmt 0 discriminator 1
  83 003e 022C     		cmp	r4, #2
  84 0040 F1D9     		bls	.L4
  85              	.LBE2:
  58:hal_spi.c     ****         }
  59:hal_spi.c     ****     }
  60:hal_spi.c     ****     SPI_ClearFIFO();
  86              		.loc 1 60 0 is_stmt 1
  87 0042 FFF7FEFF 		bl	SPI_ClearFIFO
  88              	.LVL9:
  89              	.LBB3:
  61:hal_spi.c     **** 
  62:hal_spi.c     ****     for (size_t i = 0; i < data_size; i++) {
  90              		.loc 1 62 0
  91 0046 0024     		movs	r4, #0
  92              	.LVL10:
  93 0048 0BE0     		b	.L5
  94              	.LVL11:
  95              	.L7:
  63:hal_spi.c     ****         SPI_WriteTxData(0x00);
  96              		.loc 1 63 0
  97 004a 0020     		movs	r0, #0
  98 004c FFF7FEFF 		bl	SPI_WriteTxData
  99              	.LVL12:
 100              	.L6:
  64:hal_spi.c     ****         while (!(SPI_ReadTxStatus() & SPI_STS_BYTE_COMPLETE)) {
 101              		.loc 1 64 0 discriminator 1
 102 0050 FFF7FEFF 		bl	SPI_ReadTxStatus
 103              	.LVL13:
 104 0054 10F0080F 		tst	r0, #8
ARM GAS  C:\Users\d3bug\AppData\Local\Temp\ccFiIKb9.s 			page 4


 105 0058 FAD0     		beq	.L6
  65:hal_spi.c     ****         }
  66:hal_spi.c     ****         data[i] = SPI_ReadRxData();
 106              		.loc 1 66 0 discriminator 2
 107 005a FFF7FEFF 		bl	SPI_ReadRxData
 108              	.LVL14:
 109 005e 3055     		strb	r0, [r6, r4]
  62:hal_spi.c     ****         SPI_WriteTxData(0x00);
 110              		.loc 1 62 0 discriminator 2
 111 0060 0134     		adds	r4, r4, #1
 112              	.LVL15:
 113              	.L5:
  62:hal_spi.c     ****         SPI_WriteTxData(0x00);
 114              		.loc 1 62 0 is_stmt 0 discriminator 1
 115 0062 AC42     		cmp	r4, r5
 116 0064 F1D3     		bcc	.L7
 117              	.LBE3:
  67:hal_spi.c     ****     }
  68:hal_spi.c     ****     
  69:hal_spi.c     ****     SS_Write(1);
 118              		.loc 1 69 0 is_stmt 1
 119 0066 0120     		movs	r0, #1
 120 0068 FFF7FEFF 		bl	SS_Write
 121              	.LVL16:
  70:hal_spi.c     **** }
 122              		.loc 1 70 0
 123 006c 02B0     		add	sp, sp, #8
 124              		.cfi_def_cfa_offset 16
 125              		@ sp needed
 126 006e 70BD     		pop	{r4, r5, r6, pc}
 127              		.cfi_endproc
 128              	.LFE63:
 129              		.size	W5500_spi_read, .-W5500_spi_read
 130              		.section	.text.W5500_spi_write,"ax",%progbits
 131              		.align	2
 132              		.global	W5500_spi_write
 133              		.thumb
 134              		.thumb_func
 135              		.type	W5500_spi_write, %function
 136              	W5500_spi_write:
 137              	.LFB64:
  71:hal_spi.c     **** 
  72:hal_spi.c     **** void W5500_spi_write(const uint8_t block, const uint16_t reg_addr, const uint8_t *data, const size_
  73:hal_spi.c     **** {
 138              		.loc 1 73 0
 139              		.cfi_startproc
 140              		@ args = 0, pretend = 0, frame = 8
 141              		@ frame_needed = 0, uses_anonymous_args = 0
 142              	.LVL17:
 143 0000 70B5     		push	{r4, r5, r6, lr}
 144              		.cfi_def_cfa_offset 16
 145              		.cfi_offset 4, -16
 146              		.cfi_offset 5, -12
 147              		.cfi_offset 6, -8
 148              		.cfi_offset 14, -4
 149 0002 82B0     		sub	sp, sp, #8
 150              		.cfi_def_cfa_offset 24
ARM GAS  C:\Users\d3bug\AppData\Local\Temp\ccFiIKb9.s 			page 5


 151 0004 1646     		mov	r6, r2
 152 0006 1D46     		mov	r5, r3
  74:hal_spi.c     ****     const uint8_t control_phase = (block << _BLOCK_POS) |
 153              		.loc 1 74 0
 154 0008 C000     		lsls	r0, r0, #3
 155              	.LVL18:
 156 000a 40F00403 		orr	r3, r0, #4
 157              	.LVL19:
  75:hal_spi.c     ****                                   (ACCESS_MODE_WRITE << _ACCESS_MODE_POS) |
  76:hal_spi.c     ****                                   (SPI_OPERATION_MODE_VDM << _SPI_MODE_POS);
  77:hal_spi.c     **** 
  78:hal_spi.c     ****     const uint8_t addr_ctrl_phase[] = {
  79:hal_spi.c     ****         HI8(reg_addr), LO8(reg_addr), control_phase
 158              		.loc 1 79 0
 159 000e 0A0A     		lsrs	r2, r1, #8
 160              	.LVL20:
  78:hal_spi.c     ****         HI8(reg_addr), LO8(reg_addr), control_phase
 161              		.loc 1 78 0
 162 0010 8DF80420 		strb	r2, [sp, #4]
 163 0014 8DF80510 		strb	r1, [sp, #5]
 164 0018 8DF80630 		strb	r3, [sp, #6]
  80:hal_spi.c     ****     };
  81:hal_spi.c     **** 
  82:hal_spi.c     ****     SPI_ClearFIFO();
 165              		.loc 1 82 0
 166 001c FFF7FEFF 		bl	SPI_ClearFIFO
 167              	.LVL21:
  83:hal_spi.c     ****     
  84:hal_spi.c     ****     SS_Write(0);
 168              		.loc 1 84 0
 169 0020 0020     		movs	r0, #0
 170 0022 FFF7FEFF 		bl	SS_Write
 171              	.LVL22:
 172              	.LBB4:
  85:hal_spi.c     ****     
  86:hal_spi.c     ****     for (size_t i = 0; i < sizeof(addr_ctrl_phase); i++) {
 173              		.loc 1 86 0
 174 0026 0024     		movs	r4, #0
 175 0028 0BE0     		b	.L10
 176              	.LVL23:
 177              	.L12:
  87:hal_spi.c     ****         SPI_WriteTxData(addr_ctrl_phase[i]);
 178              		.loc 1 87 0
 179 002a 02AB     		add	r3, sp, #8
 180 002c 2344     		add	r3, r3, r4
 181 002e 13F8040C 		ldrb	r0, [r3, #-4]	@ zero_extendqisi2
 182 0032 FFF7FEFF 		bl	SPI_WriteTxData
 183              	.LVL24:
 184              	.L11:
  88:hal_spi.c     ****         while (!(SPI_ReadTxStatus() & SPI_STS_BYTE_COMPLETE)) {
 185              		.loc 1 88 0 discriminator 1
 186 0036 FFF7FEFF 		bl	SPI_ReadTxStatus
 187              	.LVL25:
 188 003a 10F0080F 		tst	r0, #8
 189 003e FAD0     		beq	.L11
  86:hal_spi.c     ****         SPI_WriteTxData(addr_ctrl_phase[i]);
 190              		.loc 1 86 0 discriminator 2
ARM GAS  C:\Users\d3bug\AppData\Local\Temp\ccFiIKb9.s 			page 6


 191 0040 0134     		adds	r4, r4, #1
 192              	.LVL26:
 193              	.L10:
  86:hal_spi.c     ****         SPI_WriteTxData(addr_ctrl_phase[i]);
 194              		.loc 1 86 0 is_stmt 0 discriminator 1
 195 0042 022C     		cmp	r4, #2
 196 0044 F1D9     		bls	.L12
 197              	.LBE4:
  89:hal_spi.c     ****         }
  90:hal_spi.c     ****     }
  91:hal_spi.c     ****     SPI_ClearFIFO();
 198              		.loc 1 91 0 is_stmt 1
 199 0046 FFF7FEFF 		bl	SPI_ClearFIFO
 200              	.LVL27:
 201              	.LBB5:
  92:hal_spi.c     **** 
  93:hal_spi.c     ****     for (size_t i = 0; i < data_size; i++) {
 202              		.loc 1 93 0
 203 004a 0024     		movs	r4, #0
 204              	.LVL28:
 205 004c 08E0     		b	.L13
 206              	.LVL29:
 207              	.L15:
  94:hal_spi.c     ****         SPI_WriteTxData(data[i]);
 208              		.loc 1 94 0
 209 004e 305D     		ldrb	r0, [r6, r4]	@ zero_extendqisi2
 210 0050 FFF7FEFF 		bl	SPI_WriteTxData
 211              	.LVL30:
 212              	.L14:
  95:hal_spi.c     ****         while (!(SPI_ReadTxStatus() & SPI_STS_BYTE_COMPLETE)) {
 213              		.loc 1 95 0 discriminator 1
 214 0054 FFF7FEFF 		bl	SPI_ReadTxStatus
 215              	.LVL31:
 216 0058 10F0080F 		tst	r0, #8
 217 005c FAD0     		beq	.L14
  93:hal_spi.c     ****         SPI_WriteTxData(data[i]);
 218              		.loc 1 93 0 discriminator 2
 219 005e 0134     		adds	r4, r4, #1
 220              	.LVL32:
 221              	.L13:
  93:hal_spi.c     ****         SPI_WriteTxData(data[i]);
 222              		.loc 1 93 0 is_stmt 0 discriminator 1
 223 0060 AC42     		cmp	r4, r5
 224 0062 F4D3     		bcc	.L15
 225              	.LBE5:
  96:hal_spi.c     ****         }
  97:hal_spi.c     ****     }
  98:hal_spi.c     ****     
  99:hal_spi.c     ****     SS_Write(1);
 226              		.loc 1 99 0 is_stmt 1
 227 0064 0120     		movs	r0, #1
 228 0066 FFF7FEFF 		bl	SS_Write
 229              	.LVL33:
 100:hal_spi.c     **** }
 230              		.loc 1 100 0
 231 006a 02B0     		add	sp, sp, #8
 232              		.cfi_def_cfa_offset 16
ARM GAS  C:\Users\d3bug\AppData\Local\Temp\ccFiIKb9.s 			page 7


 233              		@ sp needed
 234 006c 70BD     		pop	{r4, r5, r6, pc}
 235              		.cfi_endproc
 236              	.LFE64:
 237              		.size	W5500_spi_write, .-W5500_spi_write
 238 006e 00BF     		.section	.text.W5500_spi_read_byte,"ax",%progbits
 239              		.align	2
 240              		.global	W5500_spi_read_byte
 241              		.thumb
 242              		.thumb_func
 243              		.type	W5500_spi_read_byte, %function
 244              	W5500_spi_read_byte:
 245              	.LFB65:
 101:hal_spi.c     **** 
 102:hal_spi.c     **** uint8_t W5500_spi_read_byte(const uint8_t block, const uint16_t reg_addr)
 103:hal_spi.c     **** {
 246              		.loc 1 103 0
 247              		.cfi_startproc
 248              		@ args = 0, pretend = 0, frame = 8
 249              		@ frame_needed = 0, uses_anonymous_args = 0
 250              	.LVL34:
 251 0000 10B5     		push	{r4, lr}
 252              		.cfi_def_cfa_offset 8
 253              		.cfi_offset 4, -8
 254              		.cfi_offset 14, -4
 255 0002 82B0     		sub	sp, sp, #8
 256              		.cfi_def_cfa_offset 16
 257              	.LVL35:
 104:hal_spi.c     ****     uint8_t result = 0;
 105:hal_spi.c     ****     
 106:hal_spi.c     ****     const uint8_t control_phase = (block << _BLOCK_POS) |
 258              		.loc 1 106 0
 259 0004 C000     		lsls	r0, r0, #3
 260              	.LVL36:
 107:hal_spi.c     ****                                   (ACCESS_MODE_READ << _ACCESS_MODE_POS) |
 108:hal_spi.c     ****                                   (SPI_OPERATION_MODE_VDM << _SPI_MODE_POS);
 109:hal_spi.c     **** 
 110:hal_spi.c     ****     const uint8_t addr_ctrl_phase[] = {
 111:hal_spi.c     ****         HI8(reg_addr), LO8(reg_addr), control_phase
 261              		.loc 1 111 0
 262 0006 0B0A     		lsrs	r3, r1, #8
 110:hal_spi.c     ****         HI8(reg_addr), LO8(reg_addr), control_phase
 263              		.loc 1 110 0
 264 0008 8DF80430 		strb	r3, [sp, #4]
 265 000c 8DF80510 		strb	r1, [sp, #5]
 266 0010 8DF80600 		strb	r0, [sp, #6]
 112:hal_spi.c     ****     };
 113:hal_spi.c     **** 
 114:hal_spi.c     ****     SPI_ClearFIFO();
 267              		.loc 1 114 0
 268 0014 FFF7FEFF 		bl	SPI_ClearFIFO
 269              	.LVL37:
 115:hal_spi.c     ****     
 116:hal_spi.c     ****     SS_Write(0);
 270              		.loc 1 116 0
 271 0018 0020     		movs	r0, #0
 272 001a FFF7FEFF 		bl	SS_Write
ARM GAS  C:\Users\d3bug\AppData\Local\Temp\ccFiIKb9.s 			page 8


 273              	.LVL38:
 274              	.LBB6:
 117:hal_spi.c     ****     
 118:hal_spi.c     ****     for (size_t i = 0; i < sizeof(addr_ctrl_phase); i++) {
 275              		.loc 1 118 0
 276 001e 0024     		movs	r4, #0
 277 0020 0BE0     		b	.L18
 278              	.LVL39:
 279              	.L20:
 119:hal_spi.c     ****         SPI_WriteTxData(addr_ctrl_phase[i]);
 280              		.loc 1 119 0
 281 0022 02AB     		add	r3, sp, #8
 282 0024 2344     		add	r3, r3, r4
 283 0026 13F8040C 		ldrb	r0, [r3, #-4]	@ zero_extendqisi2
 284 002a FFF7FEFF 		bl	SPI_WriteTxData
 285              	.LVL40:
 286              	.L19:
 120:hal_spi.c     ****         while (!(SPI_ReadTxStatus() & SPI_STS_BYTE_COMPLETE)) {
 287              		.loc 1 120 0 discriminator 1
 288 002e FFF7FEFF 		bl	SPI_ReadTxStatus
 289              	.LVL41:
 290 0032 10F0080F 		tst	r0, #8
 291 0036 FAD0     		beq	.L19
 118:hal_spi.c     ****         SPI_WriteTxData(addr_ctrl_phase[i]);
 292              		.loc 1 118 0 discriminator 2
 293 0038 0134     		adds	r4, r4, #1
 294              	.LVL42:
 295              	.L18:
 118:hal_spi.c     ****         SPI_WriteTxData(addr_ctrl_phase[i]);
 296              		.loc 1 118 0 is_stmt 0 discriminator 1
 297 003a 022C     		cmp	r4, #2
 298 003c F1D9     		bls	.L20
 299              	.LBE6:
 121:hal_spi.c     ****         }
 122:hal_spi.c     ****     }
 123:hal_spi.c     ****     SPI_ClearFIFO();
 300              		.loc 1 123 0 is_stmt 1
 301 003e FFF7FEFF 		bl	SPI_ClearFIFO
 302              	.LVL43:
 124:hal_spi.c     **** 
 125:hal_spi.c     ****     SPI_WriteTxData(0x00);
 303              		.loc 1 125 0
 304 0042 0020     		movs	r0, #0
 305 0044 FFF7FEFF 		bl	SPI_WriteTxData
 306              	.LVL44:
 307              	.L21:
 126:hal_spi.c     ****     while (!(SPI_ReadTxStatus() & SPI_STS_BYTE_COMPLETE)) {
 308              		.loc 1 126 0 discriminator 1
 309 0048 FFF7FEFF 		bl	SPI_ReadTxStatus
 310              	.LVL45:
 311 004c 10F0080F 		tst	r0, #8
 312 0050 FAD0     		beq	.L21
 127:hal_spi.c     ****     }
 128:hal_spi.c     ****     result = SPI_ReadRxData();
 313              		.loc 1 128 0
 314 0052 FFF7FEFF 		bl	SPI_ReadRxData
 315              	.LVL46:
ARM GAS  C:\Users\d3bug\AppData\Local\Temp\ccFiIKb9.s 			page 9


 316 0056 0446     		mov	r4, r0
 317              	.LVL47:
 129:hal_spi.c     ****     
 130:hal_spi.c     ****     SS_Write(1);
 318              		.loc 1 130 0
 319 0058 0120     		movs	r0, #1
 320 005a FFF7FEFF 		bl	SS_Write
 321              	.LVL48:
 131:hal_spi.c     ****     
 132:hal_spi.c     ****     return result;
 133:hal_spi.c     **** }
 322              		.loc 1 133 0
 323 005e 2046     		mov	r0, r4
 324 0060 02B0     		add	sp, sp, #8
 325              		.cfi_def_cfa_offset 8
 326              		@ sp needed
 327 0062 10BD     		pop	{r4, pc}
 328              		.cfi_endproc
 329              	.LFE65:
 330              		.size	W5500_spi_read_byte, .-W5500_spi_read_byte
 331              		.section	.text.W5500_spi_write_byte,"ax",%progbits
 332              		.align	2
 333              		.global	W5500_spi_write_byte
 334              		.thumb
 335              		.thumb_func
 336              		.type	W5500_spi_write_byte, %function
 337              	W5500_spi_write_byte:
 338              	.LFB66:
 134:hal_spi.c     **** 
 135:hal_spi.c     **** void W5500_spi_write_byte(const uint8_t block, const uint16_t reg_addr, uint8_t data)
 136:hal_spi.c     **** {
 339              		.loc 1 136 0
 340              		.cfi_startproc
 341              		@ args = 0, pretend = 0, frame = 8
 342              		@ frame_needed = 0, uses_anonymous_args = 0
 343              	.LVL49:
 344 0000 30B5     		push	{r4, r5, lr}
 345              		.cfi_def_cfa_offset 12
 346              		.cfi_offset 4, -12
 347              		.cfi_offset 5, -8
 348              		.cfi_offset 14, -4
 349 0002 83B0     		sub	sp, sp, #12
 350              		.cfi_def_cfa_offset 24
 351 0004 1546     		mov	r5, r2
 137:hal_spi.c     ****     const uint8_t control_phase = (block << _BLOCK_POS) |
 352              		.loc 1 137 0
 353 0006 C000     		lsls	r0, r0, #3
 354              	.LVL50:
 355 0008 40F00400 		orr	r0, r0, #4
 356              	.LVL51:
 138:hal_spi.c     ****                                   (ACCESS_MODE_WRITE << _ACCESS_MODE_POS) |
 139:hal_spi.c     ****                                   (SPI_OPERATION_MODE_VDM << _SPI_MODE_POS);
 140:hal_spi.c     **** 
 141:hal_spi.c     ****     const uint8_t addr_ctrl_phase[] = {
 142:hal_spi.c     ****         HI8(reg_addr), LO8(reg_addr), control_phase
 357              		.loc 1 142 0
 358 000c 0B0A     		lsrs	r3, r1, #8
ARM GAS  C:\Users\d3bug\AppData\Local\Temp\ccFiIKb9.s 			page 10


 141:hal_spi.c     ****         HI8(reg_addr), LO8(reg_addr), control_phase
 359              		.loc 1 141 0
 360 000e 8DF80430 		strb	r3, [sp, #4]
 361 0012 8DF80510 		strb	r1, [sp, #5]
 362 0016 8DF80600 		strb	r0, [sp, #6]
 143:hal_spi.c     ****     };
 144:hal_spi.c     **** 
 145:hal_spi.c     ****     SPI_ClearFIFO();
 363              		.loc 1 145 0
 364 001a FFF7FEFF 		bl	SPI_ClearFIFO
 365              	.LVL52:
 146:hal_spi.c     ****     
 147:hal_spi.c     ****     SS_Write(0);
 366              		.loc 1 147 0
 367 001e 0020     		movs	r0, #0
 368 0020 FFF7FEFF 		bl	SS_Write
 369              	.LVL53:
 370              	.LBB7:
 148:hal_spi.c     ****     
 149:hal_spi.c     ****     for (size_t i = 0; i < sizeof(addr_ctrl_phase); i++) {
 371              		.loc 1 149 0
 372 0024 0024     		movs	r4, #0
 373 0026 0BE0     		b	.L24
 374              	.LVL54:
 375              	.L26:
 150:hal_spi.c     ****         SPI_WriteTxData(addr_ctrl_phase[i]);
 376              		.loc 1 150 0
 377 0028 02AB     		add	r3, sp, #8
 378 002a 2344     		add	r3, r3, r4
 379 002c 13F8040C 		ldrb	r0, [r3, #-4]	@ zero_extendqisi2
 380 0030 FFF7FEFF 		bl	SPI_WriteTxData
 381              	.LVL55:
 382              	.L25:
 151:hal_spi.c     ****         while (!(SPI_ReadTxStatus() & SPI_STS_BYTE_COMPLETE)) {
 383              		.loc 1 151 0 discriminator 1
 384 0034 FFF7FEFF 		bl	SPI_ReadTxStatus
 385              	.LVL56:
 386 0038 10F0080F 		tst	r0, #8
 387 003c FAD0     		beq	.L25
 149:hal_spi.c     ****         SPI_WriteTxData(addr_ctrl_phase[i]);
 388              		.loc 1 149 0 discriminator 2
 389 003e 0134     		adds	r4, r4, #1
 390              	.LVL57:
 391              	.L24:
 149:hal_spi.c     ****         SPI_WriteTxData(addr_ctrl_phase[i]);
 392              		.loc 1 149 0 is_stmt 0 discriminator 1
 393 0040 022C     		cmp	r4, #2
 394 0042 F1D9     		bls	.L26
 395              	.LBE7:
 152:hal_spi.c     ****         }
 153:hal_spi.c     ****     }
 154:hal_spi.c     ****     SPI_ClearFIFO();
 396              		.loc 1 154 0 is_stmt 1
 397 0044 FFF7FEFF 		bl	SPI_ClearFIFO
 398              	.LVL58:
 155:hal_spi.c     **** 
 156:hal_spi.c     ****     SPI_WriteTxData(data);
ARM GAS  C:\Users\d3bug\AppData\Local\Temp\ccFiIKb9.s 			page 11


 399              		.loc 1 156 0
 400 0048 2846     		mov	r0, r5
 401 004a FFF7FEFF 		bl	SPI_WriteTxData
 402              	.LVL59:
 403              	.L27:
 157:hal_spi.c     ****     while (!(SPI_ReadTxStatus() & SPI_STS_BYTE_COMPLETE)) {
 404              		.loc 1 157 0 discriminator 1
 405 004e FFF7FEFF 		bl	SPI_ReadTxStatus
 406              	.LVL60:
 407 0052 10F0080F 		tst	r0, #8
 408 0056 FAD0     		beq	.L27
 158:hal_spi.c     ****     }
 159:hal_spi.c     ****     
 160:hal_spi.c     ****     SS_Write(1);
 409              		.loc 1 160 0
 410 0058 0120     		movs	r0, #1
 411 005a FFF7FEFF 		bl	SS_Write
 412              	.LVL61:
 161:hal_spi.c     **** }
 413              		.loc 1 161 0
 414 005e 03B0     		add	sp, sp, #12
 415              		.cfi_def_cfa_offset 12
 416              		@ sp needed
 417 0060 30BD     		pop	{r4, r5, pc}
 418              		.cfi_endproc
 419              	.LFE66:
 420              		.size	W5500_spi_write_byte, .-W5500_spi_write_byte
 421 0062 00BF     		.text
 422              	.Letext0:
 423              		.file 2 "c:\\program files (x86)\\cypress\\psoc creator\\4.2\\psoc creator\\import\\gnu\\arm\\5.4.
 424              		.file 3 "c:\\program files (x86)\\cypress\\psoc creator\\4.2\\psoc creator\\import\\gnu\\arm\\5.4.
 425              		.file 4 "Generated_Source\\PSoC5/cytypes.h"
 426              		.file 5 "c:\\program files (x86)\\cypress\\psoc creator\\4.2\\psoc creator\\import\\gnu\\arm\\5.4.
 427              		.file 6 "common.h"
 428              		.file 7 "Generated_Source\\PSoC5/SPI.h"
 429              		.file 8 "Generated_Source\\PSoC5/SS.h"
 430              		.file 9 "Generated_Source\\PSoC5/core_cm3.h"