ARM GAS  C:\Users\d3bug\AppData\Local\Temp\ccmBadDX.s 			page 1


   1              		.syntax unified
   2              		.cpu cortex-m3
   3              		.fpu softvfp
   4              		.eabi_attribute 20, 1
   5              		.eabi_attribute 21, 1
   6              		.eabi_attribute 23, 3
   7              		.eabi_attribute 24, 1
   8              		.eabi_attribute 25, 1
   9              		.eabi_attribute 26, 1
  10              		.eabi_attribute 30, 1
  11              		.eabi_attribute 34, 1
  12              		.eabi_attribute 18, 4
  13              		.thumb
  14              		.syntax unified
  15              		.file	"main.c"
  16              		.text
  17              	.Ltext0:
  18              		.cfi_sections	.debug_frame
  19              		.section	.text.w5500_isr,"ax",%progbits
  20              		.align	2
  21              		.global	w5500_isr
  22              		.thumb
  23              		.thumb_func
  24              		.type	w5500_isr, %function
  25              	w5500_isr:
  26              	.LFB70:
  27              		.file 1 "main.c"
   1:main.c        **** #include "project.h"
   2:main.c        **** #include <stdio.h>
   3:main.c        **** #include <stdbool.h>
   4:main.c        **** 
   5:main.c        **** #include "W5500.h"
   6:main.c        **** #include "hal_spi.h"
   7:main.c        **** 
   8:main.c        **** void wiz_init(const uint8_t *ip_addr);
   9:main.c        **** void socket0_init(void);
  10:main.c        **** void close_socket0(void);
  11:main.c        **** 
  12:main.c        **** /* Interrupt handlers */
  13:main.c        **** void handle_connection(void);
  14:main.c        **** void handle_data(void);
  15:main.c        **** void handle_disconnection(void);
  16:main.c        **** void w5500_isr(void);
  17:main.c        **** 
  18:main.c        **** volatile bool w5500_interrupt_flag = false;
  19:main.c        **** volatile uint8_t sir_sts = 0;
  20:main.c        **** 
  21:main.c        **** int main(void)
  22:main.c        **** {
  23:main.c        ****     const uint8_t ip_addr[] = {192, 168, 137, 70};
  24:main.c        ****     
  25:main.c        ****     isr_W5500_StartEx(w5500_isr);
  26:main.c        ****     
  27:main.c        ****     CyGlobalIntEnable;
  28:main.c        **** 
  29:main.c        ****     SPI_Start();
  30:main.c        ****     UART_Start();
ARM GAS  C:\Users\d3bug\AppData\Local\Temp\ccmBadDX.s 			page 2


  31:main.c        ****     UART_PutChar(0x0C);
  32:main.c        ****     
  33:main.c        ****     CyDelay(100);
  34:main.c        ****     
  35:main.c        ****     W5500_spi_write_byte(BLOCK_COMMON_REGISTER, SOCKET_REG_MODE, 0x80);
  36:main.c        ****     
  37:main.c        ****     wiz_init(ip_addr);
  38:main.c        ****     
  39:main.c        ****     socket0_init();
  40:main.c        ****     UART_PutString("Waiting for connection...\r\n");
  41:main.c        ****     
  42:main.c        ****     while (1) {
  43:main.c        ****         
  44:main.c        ****         if (true == w5500_interrupt_flag) {
  45:main.c        ****             w5500_interrupt_flag = false;
  46:main.c        ****             UART_PutString("Socket 0 interrupt\r\n");
  47:main.c        ****             
  48:main.c        ****             // clearing socket 0 interrupt
  49:main.c        ****             W5500_spi_write_byte(BLOCK_COMMON_REGISTER, 0x0017, 0x01);
  50:main.c        ****         
  51:main.c        ****             sir_sts = W5500_spi_read_byte(BLOCK_SOCKET_0_REGISTER, SOCKET_REG_INTERRUPT);
  52:main.c        ****             UART_PutString("Socket 0 Interrupt Register: 0x");
  53:main.c        ****             UART_PutHexByte(sir_sts);
  54:main.c        ****             UART_PutCRLF();
  55:main.c        ****         
  56:main.c        ****             W5500_spi_write_byte(BLOCK_SOCKET_0_REGISTER, SOCKET_REG_INTERRUPT, sir_sts);
  57:main.c        ****             
  58:main.c        ****             if (sir_sts & 0x01) { // CON interrupt flag
  59:main.c        ****                 // Clear the interrupt flag
  60:main.c        ****                 W5500_spi_write_byte(BLOCK_SOCKET_0_REGISTER, SOCKET_REG_INTERRUPT, 0x01);
  61:main.c        ****                 
  62:main.c        ****                 handle_connection();
  63:main.c        ****                 
  64:main.c        ****                 // Enable the RECV and DISCON interrupts, but disable all others first
  65:main.c        ****                 W5500_spi_write_byte(BLOCK_SOCKET_0_REGISTER, SOCKET_REG_INTERRUPT_MASK, 0x00);
  66:main.c        ****                 W5500_spi_write_byte(BLOCK_SOCKET_0_REGISTER, SOCKET_REG_INTERRUPT_MASK, 0x04 | 0x0
  67:main.c        ****             }
  68:main.c        ****             
  69:main.c        ****             if (sir_sts & 0x02) { // DISCON interrupt flag
  70:main.c        ****                 // Clear the interrupt flag
  71:main.c        ****                 W5500_spi_write_byte(BLOCK_SOCKET_0_REGISTER, SOCKET_REG_INTERRUPT, 0x02);
  72:main.c        ****                 
  73:main.c        ****                 handle_disconnection();
  74:main.c        ****                 
  75:main.c        ****                 // Enable the CON interrupt, but disable all others first
  76:main.c        ****                 W5500_spi_write_byte(BLOCK_SOCKET_0_REGISTER, SOCKET_REG_INTERRUPT_MASK, 0x00);
  77:main.c        ****                 W5500_spi_write_byte(BLOCK_SOCKET_0_REGISTER, SOCKET_REG_INTERRUPT_MASK, 0x01);
  78:main.c        ****             }
  79:main.c        **** 
  80:main.c        ****             if (sir_sts & 0x04) { // RECV interrupt flag
  81:main.c        ****                 // Clear the interrupt flag
  82:main.c        ****                 W5500_spi_write_byte(BLOCK_SOCKET_0_REGISTER, SOCKET_REG_INTERRUPT, 0x04);
  83:main.c        ****                 
  84:main.c        ****                 handle_data();
  85:main.c        ****                 
  86:main.c        ****                 // Enable the RECV and DISCON interrupts, but disable all others first
  87:main.c        ****                 W5500_spi_write_byte(BLOCK_SOCKET_0_REGISTER, SOCKET_REG_INTERRUPT_MASK, 0x00);
ARM GAS  C:\Users\d3bug\AppData\Local\Temp\ccmBadDX.s 			page 3


  88:main.c        ****                 W5500_spi_write_byte(BLOCK_SOCKET_0_REGISTER, SOCKET_REG_INTERRUPT_MASK, 0x04 | 0x0
  89:main.c        ****             }
  90:main.c        ****         }
  91:main.c        ****         
  92:main.c        ****     }
  93:main.c        **** }
  94:main.c        **** 
  95:main.c        **** void wiz_init(const uint8_t *ip_addr)
  96:main.c        **** {
  97:main.c        ****     const uint8_t mac_addr[] = {0x00, 0xDE, 0xAD, 0xBE, 0xEF, 0x00};
  98:main.c        ****     const uint8_t submask[] = {255, 255, 255, 0};
  99:main.c        ****     const uint8_t gtw_addr[] = {192, 168, 1, 70}; // pc addr
 100:main.c        ****     
 101:main.c        ****     // set receive buffer for socket 0 to 1k
 102:main.c        ****     W5500_spi_write_byte(BLOCK_SOCKET_0_REGISTER, SOCKET_REG_RX_BUFFER_SIZE, 1);
 103:main.c        ****     // set transmit buffer for socket 0 to 1k
 104:main.c        ****     W5500_spi_write_byte(BLOCK_SOCKET_0_REGISTER, SOCKET_REG_TX_BUFFER_SIZE, 2);
 105:main.c        ****     
 106:main.c        ****     // SHAR (Source Hardware Address Register)
 107:main.c        ****     W5500_spi_write(BLOCK_COMMON_REGISTER, 0x0009, mac_addr, sizeof(mac_addr));
 108:main.c        ****     // gateway address register
 109:main.c        ****     W5500_spi_write(BLOCK_COMMON_REGISTER, 0x0001, gtw_addr, sizeof(gtw_addr));
 110:main.c        ****     // submask address
 111:main.c        ****     W5500_spi_write(BLOCK_COMMON_REGISTER, 0x0005, submask, sizeof(submask));
 112:main.c        ****     // ip address
 113:main.c        ****     W5500_spi_write(BLOCK_COMMON_REGISTER, 0x000F, ip_addr, sizeof(ip_addr));
 114:main.c        ****     // enable socket 0 interrupts
 115:main.c        ****     W5500_spi_write_byte(BLOCK_COMMON_REGISTER, 0x0018, 0x01);
 116:main.c        **** }
 117:main.c        **** 
 118:main.c        **** void socket0_init(void)
 119:main.c        **** {
 120:main.c        ****     uint8_t tcp_port[] = {0, 80}; // 80d = 50h
 121:main.c        ****     
 122:main.c        ****     W5500_spi_write_byte(BLOCK_SOCKET_0_REGISTER, SOCKET_REG_MODE, SOCKET_MODE_TCP);
 123:main.c        ****     // set tcp port to 80
 124:main.c        ****     W5500_spi_write(BLOCK_SOCKET_0_REGISTER, SOCKET_REG_SOURCE_PORT0, tcp_port, sizeof(tcp_port));
 125:main.c        ****     W5500_spi_write_byte(BLOCK_SOCKET_0_REGISTER, SOCKET_REG_COMMAND, SOCKET_CMD_OPEN);
 126:main.c        ****     
 127:main.c        ****     CyDelay(10);
 128:main.c        ****     
 129:main.c        ****     W5500_spi_write_byte(BLOCK_SOCKET_0_REGISTER, SOCKET_REG_COMMAND, SOCKET_CMD_LISTEN);
 130:main.c        ****     
 131:main.c        ****     // Enable only the CON interrupt, but disable all others first
 132:main.c        ****     W5500_spi_write_byte(BLOCK_SOCKET_0_REGISTER, SOCKET_REG_INTERRUPT_MASK, 0x00);
 133:main.c        ****     W5500_spi_write_byte(BLOCK_SOCKET_0_REGISTER, SOCKET_REG_INTERRUPT_MASK, 0x01);
 134:main.c        **** }
 135:main.c        **** 
 136:main.c        **** void handle_connection(void)
 137:main.c        **** {
 138:main.c        ****     uint8_t skt_remote_ip[4] = {0};
 139:main.c        ****     uint8_t skt_remote_mac[6] = {0};
 140:main.c        ****     char remote_mac[100];
 141:main.c        ****     char remote_ip[50];
 142:main.c        ****     
 143:main.c        ****     UART_PutString("Remote connection...\r\n");
 144:main.c        ****     
ARM GAS  C:\Users\d3bug\AppData\Local\Temp\ccmBadDX.s 			page 4


 145:main.c        ****     // Reading the remote MAC
 146:main.c        ****     W5500_spi_read(BLOCK_SOCKET_0_REGISTER, SOCKET_REG_DESTINATION_HW_ADDR0,
 147:main.c        ****         skt_remote_mac, sizeof(skt_remote_mac));
 148:main.c        ****     // Reading the remote IP Address
 149:main.c        ****     W5500_spi_read(BLOCK_SOCKET_0_REGISTER, SOCKET_REG_DESTINATION_IP_ADDR0,
 150:main.c        ****         skt_remote_ip, sizeof(skt_remote_ip));
 151:main.c        ****     
 152:main.c        ****     snprintf(remote_mac, sizeof(remote_mac), "Remote MAC: %X %X %X %X %X %X\r\n", skt_remote_mac[0]
 153:main.c        ****         skt_remote_mac[1], skt_remote_mac[2], skt_remote_mac[3], skt_remote_mac[4], skt_remote_mac[
 154:main.c        ****     
 155:main.c        ****     snprintf(remote_ip, sizeof(remote_ip), "Remote IP: %d %d %d %d\r\n", skt_remote_ip[0],
 156:main.c        ****         skt_remote_ip[1], skt_remote_ip[2], skt_remote_ip[3]);
 157:main.c        ****     
 158:main.c        ****     UART_PutString(remote_mac);
 159:main.c        ****     UART_PutString(remote_ip);
 160:main.c        **** }
 161:main.c        **** 
 162:main.c        **** void close_socket0(void)
 163:main.c        **** {
 164:main.c        ****     W5500_spi_write_byte(BLOCK_SOCKET_0_REGISTER, SOCKET_REG_COMMAND, SOCKET_CMD_DISCONNECT);
 165:main.c        ****     UART_PutString("Socket 0 closed\r\n");
 166:main.c        **** }
 167:main.c        **** 
 168:main.c        **** void handle_disconnection(void)
 169:main.c        **** {
 170:main.c        ****     UART_PutString("Closing the socket\r\n");
 171:main.c        ****     close_socket0();
 172:main.c        ****     UART_PutString("Socket open and listening\r\n");
 173:main.c        ****     W5500_spi_write_byte(BLOCK_SOCKET_0_REGISTER, SOCKET_REG_COMMAND, SOCKET_CMD_OPEN);
 174:main.c        ****     W5500_spi_write_byte(BLOCK_SOCKET_0_REGISTER, SOCKET_REG_COMMAND, SOCKET_CMD_LISTEN);
 175:main.c        **** }
 176:main.c        **** 
 177:main.c        **** /* Socket Status Register:
 178:main.c        ****  * El pin INTx se pone en 0 logico cuando ocurre una interrupcion que
 179:main.c        ****  * esta habilitada, al leer el registro de los flags de las interrupciones
 180:main.c        ****  * se puede ver el flag en 1 logico, pero además podemos tener mas bits
 181:main.c        ****  * en 1 logico, sin embargo si no estan habilitados en el mask interrupts
 182:main.c        ****  * estos flags no pueden causar que el INTx se vaya a 0 logico.
 183:main.c        ****  */
 184:main.c        **** void w5500_isr(void)
 185:main.c        **** {
  28              		.loc 1 185 0
  29              		.cfi_startproc
  30              		@ args = 0, pretend = 0, frame = 0
  31              		@ frame_needed = 0, uses_anonymous_args = 0
  32 0000 08B5     		push	{r3, lr}
  33              		.cfi_def_cfa_offset 8
  34              		.cfi_offset 3, -8
  35              		.cfi_offset 14, -4
 186:main.c        ****     w5500_interrupt_flag = true;
  36              		.loc 1 186 0
  37 0002 0122     		movs	r2, #1
  38 0004 024B     		ldr	r3, .L3
  39 0006 1A70     		strb	r2, [r3]
 187:main.c        ****     W5500_ISR_ClearInterrupt();
  40              		.loc 1 187 0
  41 0008 FFF7FEFF 		bl	W5500_ISR_ClearInterrupt
ARM GAS  C:\Users\d3bug\AppData\Local\Temp\ccmBadDX.s 			page 5


  42              	.LVL0:
  43 000c 08BD     		pop	{r3, pc}
  44              	.L4:
  45 000e 00BF     		.align	2
  46              	.L3:
  47 0010 00000000 		.word	.LANCHOR0
  48              		.cfi_endproc
  49              	.LFE70:
  50              		.size	w5500_isr, .-w5500_isr
  51              		.section	.text.wiz_init,"ax",%progbits
  52              		.align	2
  53              		.global	wiz_init
  54              		.thumb
  55              		.thumb_func
  56              		.type	wiz_init, %function
  57              	wiz_init:
  58              	.LFB65:
  96:main.c        ****     const uint8_t mac_addr[] = {0x00, 0xDE, 0xAD, 0xBE, 0xEF, 0x00};
  59              		.loc 1 96 0
  60              		.cfi_startproc
  61              		@ args = 0, pretend = 0, frame = 16
  62              		@ frame_needed = 0, uses_anonymous_args = 0
  63              	.LVL1:
  64 0000 10B5     		push	{r4, lr}
  65              		.cfi_def_cfa_offset 8
  66              		.cfi_offset 4, -8
  67              		.cfi_offset 14, -4
  68 0002 84B0     		sub	sp, sp, #16
  69              		.cfi_def_cfa_offset 24
  70 0004 0446     		mov	r4, r0
  97:main.c        ****     const uint8_t submask[] = {255, 255, 255, 0};
  71              		.loc 1 97 0
  72 0006 1A4B     		ldr	r3, .L7
  73 0008 1868     		ldr	r0, [r3]	@ unaligned
  74              	.LVL2:
  75 000a 0290     		str	r0, [sp, #8]	@ unaligned
  76 000c 9A88     		ldrh	r2, [r3, #4]	@ unaligned
  77 000e ADF80C20 		strh	r2, [sp, #12]	@ unaligned
  98:main.c        ****     const uint8_t gtw_addr[] = {192, 168, 1, 70}; // pc addr
  78              		.loc 1 98 0
  79 0012 9868     		ldr	r0, [r3, #8]	@ unaligned
  80 0014 0190     		str	r0, [sp, #4]	@ unaligned
  99:main.c        ****     
  81              		.loc 1 99 0
  82 0016 D868     		ldr	r0, [r3, #12]	@ unaligned
  83 0018 0090     		str	r0, [sp]	@ unaligned
 102:main.c        ****     // set transmit buffer for socket 0 to 1k
  84              		.loc 1 102 0
  85 001a 0122     		movs	r2, #1
  86 001c 1E21     		movs	r1, #30
  87 001e 1046     		mov	r0, r2
  88 0020 FFF7FEFF 		bl	W5500_spi_write_byte
  89              	.LVL3:
 104:main.c        ****     
  90              		.loc 1 104 0
  91 0024 0222     		movs	r2, #2
  92 0026 1F21     		movs	r1, #31
ARM GAS  C:\Users\d3bug\AppData\Local\Temp\ccmBadDX.s 			page 6


  93 0028 0120     		movs	r0, #1
  94 002a FFF7FEFF 		bl	W5500_spi_write_byte
  95              	.LVL4:
 107:main.c        ****     // gateway address register
  96              		.loc 1 107 0
  97 002e 0623     		movs	r3, #6
  98 0030 02AA     		add	r2, sp, #8
  99 0032 0921     		movs	r1, #9
 100 0034 0020     		movs	r0, #0
 101 0036 FFF7FEFF 		bl	W5500_spi_write
 102              	.LVL5:
 109:main.c        ****     // submask address
 103              		.loc 1 109 0
 104 003a 0423     		movs	r3, #4
 105 003c 6A46     		mov	r2, sp
 106 003e 0121     		movs	r1, #1
 107 0040 0020     		movs	r0, #0
 108 0042 FFF7FEFF 		bl	W5500_spi_write
 109              	.LVL6:
 111:main.c        ****     // ip address
 110              		.loc 1 111 0
 111 0046 0423     		movs	r3, #4
 112 0048 0DEB0302 		add	r2, sp, r3
 113 004c 0521     		movs	r1, #5
 114 004e 0020     		movs	r0, #0
 115 0050 FFF7FEFF 		bl	W5500_spi_write
 116              	.LVL7:
 113:main.c        ****     // enable socket 0 interrupts
 117              		.loc 1 113 0
 118 0054 0423     		movs	r3, #4
 119 0056 2246     		mov	r2, r4
 120 0058 0F21     		movs	r1, #15
 121 005a 0020     		movs	r0, #0
 122 005c FFF7FEFF 		bl	W5500_spi_write
 123              	.LVL8:
 115:main.c        **** }
 124              		.loc 1 115 0
 125 0060 0122     		movs	r2, #1
 126 0062 1821     		movs	r1, #24
 127 0064 0020     		movs	r0, #0
 128 0066 FFF7FEFF 		bl	W5500_spi_write_byte
 129              	.LVL9:
 116:main.c        **** 
 130              		.loc 1 116 0
 131 006a 04B0     		add	sp, sp, #16
 132              		.cfi_def_cfa_offset 8
 133              		@ sp needed
 134 006c 10BD     		pop	{r4, pc}
 135              	.LVL10:
 136              	.L8:
 137 006e 00BF     		.align	2
 138              	.L7:
 139 0070 00000000 		.word	.LANCHOR1
 140              		.cfi_endproc
 141              	.LFE65:
 142              		.size	wiz_init, .-wiz_init
 143              		.section	.text.socket0_init,"ax",%progbits
ARM GAS  C:\Users\d3bug\AppData\Local\Temp\ccmBadDX.s 			page 7


 144              		.align	2
 145              		.global	socket0_init
 146              		.thumb
 147              		.thumb_func
 148              		.type	socket0_init, %function
 149              	socket0_init:
 150              	.LFB66:
 119:main.c        ****     uint8_t tcp_port[] = {0, 80}; // 80d = 50h
 151              		.loc 1 119 0
 152              		.cfi_startproc
 153              		@ args = 0, pretend = 0, frame = 8
 154              		@ frame_needed = 0, uses_anonymous_args = 0
 155 0000 10B5     		push	{r4, lr}
 156              		.cfi_def_cfa_offset 8
 157              		.cfi_offset 4, -8
 158              		.cfi_offset 14, -4
 159 0002 82B0     		sub	sp, sp, #8
 160              		.cfi_def_cfa_offset 16
 120:main.c        ****     
 161              		.loc 1 120 0
 162 0004 0024     		movs	r4, #0
 163 0006 8DF80440 		strb	r4, [sp, #4]
 164 000a 5023     		movs	r3, #80
 165 000c 8DF80530 		strb	r3, [sp, #5]
 122:main.c        ****     // set tcp port to 80
 166              		.loc 1 122 0
 167 0010 0122     		movs	r2, #1
 168 0012 2146     		mov	r1, r4
 169 0014 1046     		mov	r0, r2
 170 0016 FFF7FEFF 		bl	W5500_spi_write_byte
 171              	.LVL11:
 124:main.c        ****     W5500_spi_write_byte(BLOCK_SOCKET_0_REGISTER, SOCKET_REG_COMMAND, SOCKET_CMD_OPEN);
 172              		.loc 1 124 0
 173 001a 0223     		movs	r3, #2
 174 001c 01AA     		add	r2, sp, #4
 175 001e 0421     		movs	r1, #4
 176 0020 0120     		movs	r0, #1
 177 0022 FFF7FEFF 		bl	W5500_spi_write
 178              	.LVL12:
 125:main.c        ****     
 179              		.loc 1 125 0
 180 0026 0122     		movs	r2, #1
 181 0028 1146     		mov	r1, r2
 182 002a 1046     		mov	r0, r2
 183 002c FFF7FEFF 		bl	W5500_spi_write_byte
 184              	.LVL13:
 127:main.c        ****     
 185              		.loc 1 127 0
 186 0030 0A20     		movs	r0, #10
 187 0032 FFF7FEFF 		bl	CyDelay
 188              	.LVL14:
 129:main.c        ****     
 189              		.loc 1 129 0
 190 0036 0222     		movs	r2, #2
 191 0038 0121     		movs	r1, #1
 192 003a 0846     		mov	r0, r1
 193 003c FFF7FEFF 		bl	W5500_spi_write_byte
ARM GAS  C:\Users\d3bug\AppData\Local\Temp\ccmBadDX.s 			page 8


 194              	.LVL15:
 132:main.c        ****     W5500_spi_write_byte(BLOCK_SOCKET_0_REGISTER, SOCKET_REG_INTERRUPT_MASK, 0x01);
 195              		.loc 1 132 0
 196 0040 2246     		mov	r2, r4
 197 0042 2C21     		movs	r1, #44
 198 0044 0120     		movs	r0, #1
 199 0046 FFF7FEFF 		bl	W5500_spi_write_byte
 200              	.LVL16:
 133:main.c        **** }
 201              		.loc 1 133 0
 202 004a 0122     		movs	r2, #1
 203 004c 2C21     		movs	r1, #44
 204 004e 1046     		mov	r0, r2
 205 0050 FFF7FEFF 		bl	W5500_spi_write_byte
 206              	.LVL17:
 134:main.c        **** 
 207              		.loc 1 134 0
 208 0054 02B0     		add	sp, sp, #8
 209              		.cfi_def_cfa_offset 8
 210              		@ sp needed
 211 0056 10BD     		pop	{r4, pc}
 212              		.cfi_endproc
 213              	.LFE66:
 214              		.size	socket0_init, .-socket0_init
 215              		.section	.text.handle_connection,"ax",%progbits
 216              		.align	2
 217              		.global	handle_connection
 218              		.thumb
 219              		.thumb_func
 220              		.type	handle_connection, %function
 221              	handle_connection:
 222              	.LFB67:
 137:main.c        ****     uint8_t skt_remote_ip[4] = {0};
 223              		.loc 1 137 0
 224              		.cfi_startproc
 225              		@ args = 0, pretend = 0, frame = 168
 226              		@ frame_needed = 0, uses_anonymous_args = 0
 227 0000 30B5     		push	{r4, r5, lr}
 228              		.cfi_def_cfa_offset 12
 229              		.cfi_offset 4, -12
 230              		.cfi_offset 5, -8
 231              		.cfi_offset 14, -4
 232 0002 B1B0     		sub	sp, sp, #196
 233              		.cfi_def_cfa_offset 208
 138:main.c        ****     uint8_t skt_remote_mac[6] = {0};
 234              		.loc 1 138 0
 235 0004 0023     		movs	r3, #0
 236 0006 2F93     		str	r3, [sp, #188]
 139:main.c        ****     char remote_mac[100];
 237              		.loc 1 139 0
 238 0008 2D93     		str	r3, [sp, #180]
 239 000a ADF8B830 		strh	r3, [sp, #184]	@ movhi
 143:main.c        ****     
 240              		.loc 1 143 0
 241 000e 1E48     		ldr	r0, .L13
 242 0010 FFF7FEFF 		bl	UART_PutString
 243              	.LVL18:
ARM GAS  C:\Users\d3bug\AppData\Local\Temp\ccmBadDX.s 			page 9


 146:main.c        ****         skt_remote_mac, sizeof(skt_remote_mac));
 244              		.loc 1 146 0
 245 0014 0623     		movs	r3, #6
 246 0016 2DAA     		add	r2, sp, #180
 247 0018 1946     		mov	r1, r3
 248 001a 0120     		movs	r0, #1
 249 001c FFF7FEFF 		bl	W5500_spi_read
 250              	.LVL19:
 149:main.c        ****         skt_remote_ip, sizeof(skt_remote_ip));
 251              		.loc 1 149 0
 252 0020 0423     		movs	r3, #4
 253 0022 2FAA     		add	r2, sp, #188
 254 0024 0C21     		movs	r1, #12
 255 0026 0120     		movs	r0, #1
 256 0028 FFF7FEFF 		bl	W5500_spi_read
 257              	.LVL20:
 152:main.c        ****         skt_remote_mac[1], skt_remote_mac[2], skt_remote_mac[3], skt_remote_mac[4], skt_remote_mac[
 258              		.loc 1 152 0
 259 002c 9DF8B430 		ldrb	r3, [sp, #180]	@ zero_extendqisi2
 153:main.c        ****     
 260              		.loc 1 153 0
 261 0030 9DF8B520 		ldrb	r2, [sp, #181]	@ zero_extendqisi2
 262 0034 9DF8B610 		ldrb	r1, [sp, #182]	@ zero_extendqisi2
 263 0038 9DF8B700 		ldrb	r0, [sp, #183]	@ zero_extendqisi2
 264 003c 9DF8B840 		ldrb	r4, [sp, #184]	@ zero_extendqisi2
 265 0040 9DF8B950 		ldrb	r5, [sp, #185]	@ zero_extendqisi2
 152:main.c        ****         skt_remote_mac[1], skt_remote_mac[2], skt_remote_mac[3], skt_remote_mac[4], skt_remote_mac[
 266              		.loc 1 152 0
 267 0044 0495     		str	r5, [sp, #16]
 268 0046 0394     		str	r4, [sp, #12]
 269 0048 0290     		str	r0, [sp, #8]
 270 004a 0191     		str	r1, [sp, #4]
 271 004c 0092     		str	r2, [sp]
 272 004e 0F4A     		ldr	r2, .L13+4
 273 0050 6421     		movs	r1, #100
 274 0052 14A8     		add	r0, sp, #80
 275 0054 FFF7FEFF 		bl	snprintf
 276              	.LVL21:
 155:main.c        ****         skt_remote_ip[1], skt_remote_ip[2], skt_remote_ip[3]);
 277              		.loc 1 155 0
 278 0058 9DF8BC30 		ldrb	r3, [sp, #188]	@ zero_extendqisi2
 156:main.c        ****     
 279              		.loc 1 156 0
 280 005c 9DF8BD20 		ldrb	r2, [sp, #189]	@ zero_extendqisi2
 281 0060 9DF8BE10 		ldrb	r1, [sp, #190]	@ zero_extendqisi2
 282 0064 9DF8BF00 		ldrb	r0, [sp, #191]	@ zero_extendqisi2
 155:main.c        ****         skt_remote_ip[1], skt_remote_ip[2], skt_remote_ip[3]);
 283              		.loc 1 155 0
 284 0068 0290     		str	r0, [sp, #8]
 285 006a 0191     		str	r1, [sp, #4]
 286 006c 0092     		str	r2, [sp]
 287 006e 084A     		ldr	r2, .L13+8
 288 0070 3221     		movs	r1, #50
 289 0072 07A8     		add	r0, sp, #28
 290 0074 FFF7FEFF 		bl	snprintf
 291              	.LVL22:
 158:main.c        ****     UART_PutString(remote_ip);
ARM GAS  C:\Users\d3bug\AppData\Local\Temp\ccmBadDX.s 			page 10


 292              		.loc 1 158 0
 293 0078 14A8     		add	r0, sp, #80
 294 007a FFF7FEFF 		bl	UART_PutString
 295              	.LVL23:
 159:main.c        **** }
 296              		.loc 1 159 0
 297 007e 07A8     		add	r0, sp, #28
 298 0080 FFF7FEFF 		bl	UART_PutString
 299              	.LVL24:
 160:main.c        **** 
 300              		.loc 1 160 0
 301 0084 31B0     		add	sp, sp, #196
 302              		.cfi_def_cfa_offset 12
 303              		@ sp needed
 304 0086 30BD     		pop	{r4, r5, pc}
 305              	.L14:
 306              		.align	2
 307              	.L13:
 308 0088 00000000 		.word	.LC4
 309 008c 18000000 		.word	.LC5
 310 0090 38000000 		.word	.LC6
 311              		.cfi_endproc
 312              	.LFE67:
 313              		.size	handle_connection, .-handle_connection
 314              		.section	.text.close_socket0,"ax",%progbits
 315              		.align	2
 316              		.global	close_socket0
 317              		.thumb
 318              		.thumb_func
 319              		.type	close_socket0, %function
 320              	close_socket0:
 321              	.LFB68:
 163:main.c        ****     W5500_spi_write_byte(BLOCK_SOCKET_0_REGISTER, SOCKET_REG_COMMAND, SOCKET_CMD_DISCONNECT);
 322              		.loc 1 163 0
 323              		.cfi_startproc
 324              		@ args = 0, pretend = 0, frame = 0
 325              		@ frame_needed = 0, uses_anonymous_args = 0
 326 0000 08B5     		push	{r3, lr}
 327              		.cfi_def_cfa_offset 8
 328              		.cfi_offset 3, -8
 329              		.cfi_offset 14, -4
 164:main.c        ****     UART_PutString("Socket 0 closed\r\n");
 330              		.loc 1 164 0
 331 0002 0822     		movs	r2, #8
 332 0004 0121     		movs	r1, #1
 333 0006 0846     		mov	r0, r1
 334 0008 FFF7FEFF 		bl	W5500_spi_write_byte
 335              	.LVL25:
 165:main.c        **** }
 336              		.loc 1 165 0
 337 000c 0148     		ldr	r0, .L17
 338 000e FFF7FEFF 		bl	UART_PutString
 339              	.LVL26:
 340 0012 08BD     		pop	{r3, pc}
 341              	.L18:
 342              		.align	2
 343              	.L17:
ARM GAS  C:\Users\d3bug\AppData\Local\Temp\ccmBadDX.s 			page 11


 344 0014 54000000 		.word	.LC7
 345              		.cfi_endproc
 346              	.LFE68:
 347              		.size	close_socket0, .-close_socket0
 348              		.section	.text.handle_disconnection,"ax",%progbits
 349              		.align	2
 350              		.global	handle_disconnection
 351              		.thumb
 352              		.thumb_func
 353              		.type	handle_disconnection, %function
 354              	handle_disconnection:
 355              	.LFB69:
 169:main.c        ****     UART_PutString("Closing the socket\r\n");
 356              		.loc 1 169 0
 357              		.cfi_startproc
 358              		@ args = 0, pretend = 0, frame = 0
 359              		@ frame_needed = 0, uses_anonymous_args = 0
 360 0000 08B5     		push	{r3, lr}
 361              		.cfi_def_cfa_offset 8
 362              		.cfi_offset 3, -8
 363              		.cfi_offset 14, -4
 170:main.c        ****     close_socket0();
 364              		.loc 1 170 0
 365 0002 0948     		ldr	r0, .L21
 366 0004 FFF7FEFF 		bl	UART_PutString
 367              	.LVL27:
 171:main.c        ****     UART_PutString("Socket open and listening\r\n");
 368              		.loc 1 171 0
 369 0008 FFF7FEFF 		bl	close_socket0
 370              	.LVL28:
 172:main.c        ****     W5500_spi_write_byte(BLOCK_SOCKET_0_REGISTER, SOCKET_REG_COMMAND, SOCKET_CMD_OPEN);
 371              		.loc 1 172 0
 372 000c 0748     		ldr	r0, .L21+4
 373 000e FFF7FEFF 		bl	UART_PutString
 374              	.LVL29:
 173:main.c        ****     W5500_spi_write_byte(BLOCK_SOCKET_0_REGISTER, SOCKET_REG_COMMAND, SOCKET_CMD_LISTEN);
 375              		.loc 1 173 0
 376 0012 0122     		movs	r2, #1
 377 0014 1146     		mov	r1, r2
 378 0016 1046     		mov	r0, r2
 379 0018 FFF7FEFF 		bl	W5500_spi_write_byte
 380              	.LVL30:
 174:main.c        **** }
 381              		.loc 1 174 0
 382 001c 0222     		movs	r2, #2
 383 001e 0121     		movs	r1, #1
 384 0020 0846     		mov	r0, r1
 385 0022 FFF7FEFF 		bl	W5500_spi_write_byte
 386              	.LVL31:
 387 0026 08BD     		pop	{r3, pc}
 388              	.L22:
 389              		.align	2
 390              	.L21:
 391 0028 68000000 		.word	.LC8
 392 002c 80000000 		.word	.LC9
 393              		.cfi_endproc
 394              	.LFE69:
ARM GAS  C:\Users\d3bug\AppData\Local\Temp\ccmBadDX.s 			page 12


 395              		.size	handle_disconnection, .-handle_disconnection
 396              		.section	.text.handle_data,"ax",%progbits
 397              		.align	2
 398              		.global	handle_data
 399              		.thumb
 400              		.thumb_func
 401              		.type	handle_data, %function
 402              	handle_data:
 403              	.LFB71:
 188:main.c        **** }
 189:main.c        **** 
 190:main.c        **** void handle_data(void)
 191:main.c        **** {
 404              		.loc 1 191 0
 405              		.cfi_startproc
 406              		@ args = 0, pretend = 0, frame = 200
 407              		@ frame_needed = 0, uses_anonymous_args = 0
 408 0000 F0B5     		push	{r4, r5, r6, r7, lr}
 409              		.cfi_def_cfa_offset 20
 410              		.cfi_offset 4, -20
 411              		.cfi_offset 5, -16
 412              		.cfi_offset 6, -12
 413              		.cfi_offset 7, -8
 414              		.cfi_offset 14, -4
 415 0002 B3B0     		sub	sp, sp, #204
 416              		.cfi_def_cfa_offset 224
 417              	.LVL32:
 192:main.c        ****     uint8_t skt_rcv_data_size[2] = {0};
 193:main.c        ****     uint8_t data_ptr[2] = {0};
 194:main.c        ****     uint16_t bytes_rcvd = 0;
 195:main.c        ****     uint16_t new_rx_addr = 0;
 196:main.c        ****     uint16_t data_addr = 0;
 197:main.c        ****     uint8_t data[100] = {0};
 418              		.loc 1 197 0
 419 0004 6422     		movs	r2, #100
 420 0006 0021     		movs	r1, #0
 421 0008 0DEB0200 		add	r0, sp, r2
 422 000c FFF7FEFF 		bl	memset
 423              	.LVL33:
 198:main.c        ****     char data_str[100];
 199:main.c        ****     
 200:main.c        ****     LED_Write(~LED_Read());
 424              		.loc 1 200 0
 425 0010 FFF7FEFF 		bl	LED_Read
 426              	.LVL34:
 427 0014 C043     		mvns	r0, r0
 428 0016 C0B2     		uxtb	r0, r0
 429 0018 FFF7FEFF 		bl	LED_Write
 430              	.LVL35:
 201:main.c        **** 
 202:main.c        ****     W5500_spi_write_byte(BLOCK_SOCKET_0_REGISTER, SOCKET_REG_INTERRUPT, sir_sts);
 431              		.loc 1 202 0
 432 001c 3C4B     		ldr	r3, .L26
 433 001e 5A78     		ldrb	r2, [r3, #1]	@ zero_extendqisi2
 434 0020 0221     		movs	r1, #2
 435 0022 0120     		movs	r0, #1
 436 0024 FFF7FEFF 		bl	W5500_spi_write_byte
ARM GAS  C:\Users\d3bug\AppData\Local\Temp\ccmBadDX.s 			page 13


 437              	.LVL36:
 203:main.c        ****     
 204:main.c        ****     // Read Sn_RX_RSR (Socket n Received Size), if it's > 0 then we have data
 205:main.c        ****     // Se calcula apartir de la diferencia entre el Sn_RX_WR y Sn_RX_RD
 206:main.c        ****     skt_rcv_data_size[0] = W5500_spi_read_byte(BLOCK_SOCKET_0_REGISTER, SOCKET_REG_RX_RECEIVED_SIZE
 438              		.loc 1 206 0
 439 0028 2621     		movs	r1, #38
 440 002a 0120     		movs	r0, #1
 441 002c FFF7FEFF 		bl	W5500_spi_read_byte
 442              	.LVL37:
 443 0030 0446     		mov	r4, r0
 207:main.c        ****     skt_rcv_data_size[1] = W5500_spi_read_byte(BLOCK_SOCKET_0_REGISTER, SOCKET_REG_RX_RECEIVED_SIZE
 444              		.loc 1 207 0
 445 0032 2721     		movs	r1, #39
 446 0034 0120     		movs	r0, #1
 447 0036 FFF7FEFF 		bl	W5500_spi_read_byte
 448              	.LVL38:
 208:main.c        ****     bytes_rcvd = (skt_rcv_data_size[0] << 8) | skt_rcv_data_size[1];
 449              		.loc 1 208 0
 450 003a 40EA0420 		orr	r0, r0, r4, lsl #8
 451 003e 84B2     		uxth	r4, r0
 452              	.LVL39:
 209:main.c        ****         
 210:main.c        ****     if (0 < bytes_rcvd) {
 453              		.loc 1 210 0
 454 0040 002C     		cmp	r4, #0
 455 0042 62D0     		beq	.L23
 211:main.c        ****         UART_PutString("Size of received data: ");
 456              		.loc 1 211 0
 457 0044 3348     		ldr	r0, .L26+4
 458 0046 FFF7FEFF 		bl	UART_PutString
 459              	.LVL40:
 212:main.c        ****         UART_PutHexInt(bytes_rcvd);
 460              		.loc 1 212 0
 461 004a 2046     		mov	r0, r4
 462 004c FFF7FEFF 		bl	UART_PutHexInt
 463              	.LVL41:
 213:main.c        ****         UART_PutCRLF();
 464              		.loc 1 213 0
 465 0050 FFF7FEFF 		bl	UART_PutCRLF
 466              	.LVL42:
 214:main.c        ****             
 215:main.c        ****         UART_PutString("Getting the received data\r\n");
 467              		.loc 1 215 0
 468 0054 3048     		ldr	r0, .L26+8
 469 0056 FFF7FEFF 		bl	UART_PutString
 470              	.LVL43:
 216:main.c        ****             
 217:main.c        ****         /* Read Sn_RX_RD (Socket n RX Read Pointer) to get RX Data Start Address */
 218:main.c        ****         data_ptr[0] = W5500_spi_read_byte(BLOCK_SOCKET_0_REGISTER, SOCKET_REG_RX_READ_POINTER0);
 471              		.loc 1 218 0
 472 005a 2821     		movs	r1, #40
 473 005c 0120     		movs	r0, #1
 474 005e FFF7FEFF 		bl	W5500_spi_read_byte
 475              	.LVL44:
 476 0062 0546     		mov	r5, r0
 219:main.c        ****         data_ptr[1] = W5500_spi_read_byte(BLOCK_SOCKET_0_REGISTER, SOCKET_REG_RX_READ_POINTER1);
ARM GAS  C:\Users\d3bug\AppData\Local\Temp\ccmBadDX.s 			page 14


 477              		.loc 1 219 0
 478 0064 2921     		movs	r1, #41
 479 0066 0120     		movs	r0, #1
 480 0068 FFF7FEFF 		bl	W5500_spi_read_byte
 481              	.LVL45:
 220:main.c        ****         data_addr = (data_ptr[0] << 8 | data_ptr[1]);
 482              		.loc 1 220 0
 483 006c 40EA0520 		orr	r0, r0, r5, lsl #8
 484 0070 85B2     		uxth	r5, r0
 485              	.LVL46:
 221:main.c        ****             
 222:main.c        ****         UART_PutString("Address of data: ");
 486              		.loc 1 222 0
 487 0072 2A48     		ldr	r0, .L26+12
 488 0074 FFF7FEFF 		bl	UART_PutString
 489              	.LVL47:
 223:main.c        ****         UART_PutHexInt(data_addr);
 490              		.loc 1 223 0
 491 0078 2846     		mov	r0, r5
 492 007a FFF7FEFF 		bl	UART_PutHexInt
 493              	.LVL48:
 224:main.c        ****         UART_PutCRLF();
 494              		.loc 1 224 0
 495 007e FFF7FEFF 		bl	UART_PutCRLF
 496              	.LVL49:
 225:main.c        ****             
 226:main.c        ****         /* Read received Data from Sn_RX_BUF */
 227:main.c        ****         W5500_spi_read(BLOCK_SOCKET_0_RX_BUFFER, data_addr, data, sizeof(data));
 497              		.loc 1 227 0
 498 0082 6423     		movs	r3, #100
 499 0084 0DEB0302 		add	r2, sp, r3
 500 0088 2946     		mov	r1, r5
 501 008a 0320     		movs	r0, #3
 502 008c FFF7FEFF 		bl	W5500_spi_read
 503              	.LVL50:
 228:main.c        ****             
 229:main.c        ****         /* Despues de leer los datos tenemos que actualizar Sn_RX_RD con el
 230:main.c        ****         * tamaño de los datos que leimos. Mandar el comando RECV para notificar
 231:main.c        ****         * al W5500. */
 232:main.c        ****         new_rx_addr = data_addr + bytes_rcvd;
 504              		.loc 1 232 0
 505 0090 2544     		add	r5, r5, r4
 506              	.LVL51:
 507 0092 ADB2     		uxth	r5, r5
 508              	.LVL52:
 233:main.c        ****         data_ptr[0] = (new_rx_addr & 0xFF00) >> 8;
 509              		.loc 1 233 0
 510 0094 2F0A     		lsrs	r7, r5, #8
 234:main.c        ****         data_ptr[1] = new_rx_addr & 0xFF;
 511              		.loc 1 234 0
 512 0096 EEB2     		uxtb	r6, r5
 235:main.c        ****         UART_PutString("Bytes received: ");
 513              		.loc 1 235 0
 514 0098 2148     		ldr	r0, .L26+16
 515 009a FFF7FEFF 		bl	UART_PutString
 516              	.LVL53:
 236:main.c        ****         UART_PutHexInt(bytes_rcvd);
ARM GAS  C:\Users\d3bug\AppData\Local\Temp\ccmBadDX.s 			page 15


 517              		.loc 1 236 0
 518 009e 2046     		mov	r0, r4
 519 00a0 FFF7FEFF 		bl	UART_PutHexInt
 520              	.LVL54:
 237:main.c        ****         UART_PutCRLF();            
 521              		.loc 1 237 0
 522 00a4 FFF7FEFF 		bl	UART_PutCRLF
 523              	.LVL55:
 238:main.c        ****         UART_PutString("New rx addr: ");
 524              		.loc 1 238 0
 525 00a8 1E48     		ldr	r0, .L26+20
 526 00aa FFF7FEFF 		bl	UART_PutString
 527              	.LVL56:
 239:main.c        ****         UART_PutHexInt(new_rx_addr);
 528              		.loc 1 239 0
 529 00ae 2846     		mov	r0, r5
 530 00b0 FFF7FEFF 		bl	UART_PutHexInt
 531              	.LVL57:
 240:main.c        ****         UART_PutCRLF();                      
 532              		.loc 1 240 0
 533 00b4 FFF7FEFF 		bl	UART_PutCRLF
 534              	.LVL58:
 241:main.c        ****         W5500_spi_write_byte(BLOCK_SOCKET_0_REGISTER, SOCKET_REG_RX_READ_POINTER0, data_ptr[0]);
 535              		.loc 1 241 0
 536 00b8 3A46     		mov	r2, r7
 537 00ba 2821     		movs	r1, #40
 538 00bc 0120     		movs	r0, #1
 539 00be FFF7FEFF 		bl	W5500_spi_write_byte
 540              	.LVL59:
 242:main.c        ****         W5500_spi_write_byte(BLOCK_SOCKET_0_REGISTER, SOCKET_REG_RX_READ_POINTER1, data_ptr[1]);
 541              		.loc 1 242 0
 542 00c2 3246     		mov	r2, r6
 543 00c4 2921     		movs	r1, #41
 544 00c6 0120     		movs	r0, #1
 545 00c8 FFF7FEFF 		bl	W5500_spi_write_byte
 546              	.LVL60:
 243:main.c        ****             
 244:main.c        ****         W5500_spi_write_byte(BLOCK_SOCKET_0_REGISTER, SOCKET_REG_COMMAND, SOCKET_CMD_RECV);
 547              		.loc 1 244 0
 548 00cc 4022     		movs	r2, #64
 549 00ce 0121     		movs	r1, #1
 550 00d0 0846     		mov	r0, r1
 551 00d2 FFF7FEFF 		bl	W5500_spi_write_byte
 552              	.LVL61:
 245:main.c        ****             
 246:main.c        ****         /* Add a NULL char so we can print the received data without problems */
 247:main.c        ****         data[bytes_rcvd] = '\0';
 553              		.loc 1 247 0
 554 00d6 32AB     		add	r3, sp, #200
 555 00d8 1C44     		add	r4, r4, r3
 556              	.LVL62:
 557 00da 0025     		movs	r5, #0
 558              	.LVL63:
 559 00dc 04F8645C 		strb	r5, [r4, #-100]
 248:main.c        ****         snprintf(data_str, sizeof(data_str), "data received: %s\r\n", data);
 560              		.loc 1 248 0
 561 00e0 19AB     		add	r3, sp, #100
ARM GAS  C:\Users\d3bug\AppData\Local\Temp\ccmBadDX.s 			page 16


 562 00e2 114A     		ldr	r2, .L26+24
 563 00e4 6421     		movs	r1, #100
 564 00e6 6846     		mov	r0, sp
 565 00e8 FFF7FEFF 		bl	snprintf
 566              	.LVL64:
 249:main.c        ****         UART_PutString(data_str);
 567              		.loc 1 249 0
 568 00ec 6846     		mov	r0, sp
 569 00ee FFF7FEFF 		bl	UART_PutString
 570              	.LVL65:
 250:main.c        ****             
 251:main.c        ****         memset(data_str, '\0', sizeof(data_str));
 571              		.loc 1 251 0
 572 00f2 6424     		movs	r4, #100
 573 00f4 2246     		mov	r2, r4
 574 00f6 2946     		mov	r1, r5
 575 00f8 6846     		mov	r0, sp
 576 00fa FFF7FEFF 		bl	memset
 577              	.LVL66:
 252:main.c        ****         memset(data, 0, sizeof(data));
 578              		.loc 1 252 0
 579 00fe 2246     		mov	r2, r4
 580 0100 2946     		mov	r1, r5
 581 0102 0DEB0400 		add	r0, sp, r4
 582 0106 FFF7FEFF 		bl	memset
 583              	.LVL67:
 584              	.L23:
 253:main.c        ****     }
 254:main.c        **** }
 585              		.loc 1 254 0
 586 010a 33B0     		add	sp, sp, #204
 587              		.cfi_def_cfa_offset 20
 588              		@ sp needed
 589 010c F0BD     		pop	{r4, r5, r6, r7, pc}
 590              	.L27:
 591 010e 00BF     		.align	2
 592              	.L26:
 593 0110 00000000 		.word	.LANCHOR0
 594 0114 9C000000 		.word	.LC10
 595 0118 B4000000 		.word	.LC11
 596 011c D0000000 		.word	.LC12
 597 0120 E4000000 		.word	.LC13
 598 0124 F8000000 		.word	.LC14
 599 0128 08010000 		.word	.LC15
 600              		.cfi_endproc
 601              	.LFE71:
 602              		.size	handle_data, .-handle_data
 603              		.section	.text.main,"ax",%progbits
 604              		.align	2
 605              		.global	main
 606              		.thumb
 607              		.thumb_func
 608              		.type	main, %function
 609              	main:
 610              	.LFB64:
  22:main.c        ****     const uint8_t ip_addr[] = {192, 168, 137, 70};
 611              		.loc 1 22 0
ARM GAS  C:\Users\d3bug\AppData\Local\Temp\ccmBadDX.s 			page 17


 612              		.cfi_startproc
 613              		@ args = 0, pretend = 0, frame = 8
 614              		@ frame_needed = 0, uses_anonymous_args = 0
 615 0000 30B5     		push	{r4, r5, lr}
 616              		.cfi_def_cfa_offset 12
 617              		.cfi_offset 4, -12
 618              		.cfi_offset 5, -8
 619              		.cfi_offset 14, -4
 620 0002 83B0     		sub	sp, sp, #12
 621              		.cfi_def_cfa_offset 24
  23:main.c        ****     
 622              		.loc 1 23 0
 623 0004 404B     		ldr	r3, .L35
 624 0006 1868     		ldr	r0, [r3]	@ unaligned
 625 0008 0190     		str	r0, [sp, #4]	@ unaligned
  25:main.c        ****     
 626              		.loc 1 25 0
 627 000a 4048     		ldr	r0, .L35+4
 628 000c FFF7FEFF 		bl	isr_W5500_StartEx
 629              	.LVL68:
  27:main.c        **** 
 630              		.loc 1 27 0
 631              		.syntax unified
 632              	@ 27 "main.c" 1
 633 0010 62B6     		CPSIE   i
 634              	@ 0 "" 2
  29:main.c        ****     UART_Start();
 635              		.loc 1 29 0
 636              		.thumb
 637              		.syntax unified
 638 0012 FFF7FEFF 		bl	SPI_Start
 639              	.LVL69:
  30:main.c        ****     UART_PutChar(0x0C);
 640              		.loc 1 30 0
 641 0016 FFF7FEFF 		bl	UART_Start
 642              	.LVL70:
  31:main.c        ****     
 643              		.loc 1 31 0
 644 001a 0C20     		movs	r0, #12
 645 001c FFF7FEFF 		bl	UART_PutChar
 646              	.LVL71:
  33:main.c        ****     
 647              		.loc 1 33 0
 648 0020 6420     		movs	r0, #100
 649 0022 FFF7FEFF 		bl	CyDelay
 650              	.LVL72:
  35:main.c        ****     
 651              		.loc 1 35 0
 652 0026 8022     		movs	r2, #128
 653 0028 0021     		movs	r1, #0
 654 002a 0846     		mov	r0, r1
 655 002c FFF7FEFF 		bl	W5500_spi_write_byte
 656              	.LVL73:
  37:main.c        ****     
 657              		.loc 1 37 0
 658 0030 01A8     		add	r0, sp, #4
 659 0032 FFF7FEFF 		bl	wiz_init
ARM GAS  C:\Users\d3bug\AppData\Local\Temp\ccmBadDX.s 			page 18


 660              	.LVL74:
  39:main.c        ****     UART_PutString("Waiting for connection...\r\n");
 661              		.loc 1 39 0
 662 0036 FFF7FEFF 		bl	socket0_init
 663              	.LVL75:
  40:main.c        ****     
 664              		.loc 1 40 0
 665 003a 3548     		ldr	r0, .L35+8
 666 003c FFF7FEFF 		bl	UART_PutString
 667              	.LVL76:
 668              	.L29:
  44:main.c        ****             w5500_interrupt_flag = false;
 669              		.loc 1 44 0
 670 0040 344B     		ldr	r3, .L35+12
 671 0042 1B78     		ldrb	r3, [r3]	@ zero_extendqisi2
 672 0044 13F0FF0F 		tst	r3, #255
 673 0048 FAD0     		beq	.L29
  45:main.c        ****             UART_PutString("Socket 0 interrupt\r\n");
 674              		.loc 1 45 0
 675 004a 324C     		ldr	r4, .L35+12
 676 004c 0025     		movs	r5, #0
 677 004e 2570     		strb	r5, [r4]
  46:main.c        ****             
 678              		.loc 1 46 0
 679 0050 3148     		ldr	r0, .L35+16
 680 0052 FFF7FEFF 		bl	UART_PutString
 681              	.LVL77:
  49:main.c        ****         
 682              		.loc 1 49 0
 683 0056 0122     		movs	r2, #1
 684 0058 1721     		movs	r1, #23
 685 005a 2846     		mov	r0, r5
 686 005c FFF7FEFF 		bl	W5500_spi_write_byte
 687              	.LVL78:
  51:main.c        ****             UART_PutString("Socket 0 Interrupt Register: 0x");
 688              		.loc 1 51 0
 689 0060 0221     		movs	r1, #2
 690 0062 0120     		movs	r0, #1
 691 0064 FFF7FEFF 		bl	W5500_spi_read_byte
 692              	.LVL79:
 693 0068 6070     		strb	r0, [r4, #1]
  52:main.c        ****             UART_PutHexByte(sir_sts);
 694              		.loc 1 52 0
 695 006a 2C48     		ldr	r0, .L35+20
 696 006c FFF7FEFF 		bl	UART_PutString
 697              	.LVL80:
  53:main.c        ****             UART_PutCRLF();
 698              		.loc 1 53 0
 699 0070 6078     		ldrb	r0, [r4, #1]	@ zero_extendqisi2
 700 0072 FFF7FEFF 		bl	UART_PutHexByte
 701              	.LVL81:
  54:main.c        ****         
 702              		.loc 1 54 0
 703 0076 FFF7FEFF 		bl	UART_PutCRLF
 704              	.LVL82:
  56:main.c        ****             
 705              		.loc 1 56 0
ARM GAS  C:\Users\d3bug\AppData\Local\Temp\ccmBadDX.s 			page 19


 706 007a 6278     		ldrb	r2, [r4, #1]	@ zero_extendqisi2
 707 007c 0221     		movs	r1, #2
 708 007e 0120     		movs	r0, #1
 709 0080 FFF7FEFF 		bl	W5500_spi_write_byte
 710              	.LVL83:
  58:main.c        ****                 // Clear the interrupt flag
 711              		.loc 1 58 0
 712 0084 6378     		ldrb	r3, [r4, #1]	@ zero_extendqisi2
 713 0086 13F0010F 		tst	r3, #1
 714 008a 10D0     		beq	.L30
  60:main.c        ****                 
 715              		.loc 1 60 0
 716 008c 0122     		movs	r2, #1
 717 008e 0221     		movs	r1, #2
 718 0090 1046     		mov	r0, r2
 719 0092 FFF7FEFF 		bl	W5500_spi_write_byte
 720              	.LVL84:
  62:main.c        ****                 
 721              		.loc 1 62 0
 722 0096 FFF7FEFF 		bl	handle_connection
 723              	.LVL85:
  65:main.c        ****                 W5500_spi_write_byte(BLOCK_SOCKET_0_REGISTER, SOCKET_REG_INTERRUPT_MASK, 0x04 | 0x0
 724              		.loc 1 65 0
 725 009a 2A46     		mov	r2, r5
 726 009c 2C21     		movs	r1, #44
 727 009e 0120     		movs	r0, #1
 728 00a0 FFF7FEFF 		bl	W5500_spi_write_byte
 729              	.LVL86:
  66:main.c        ****             }
 730              		.loc 1 66 0
 731 00a4 0622     		movs	r2, #6
 732 00a6 2C21     		movs	r1, #44
 733 00a8 0120     		movs	r0, #1
 734 00aa FFF7FEFF 		bl	W5500_spi_write_byte
 735              	.LVL87:
 736              	.L30:
  69:main.c        ****                 // Clear the interrupt flag
 737              		.loc 1 69 0
 738 00ae 194B     		ldr	r3, .L35+12
 739 00b0 5B78     		ldrb	r3, [r3, #1]	@ zero_extendqisi2
 740 00b2 13F0020F 		tst	r3, #2
 741 00b6 10D0     		beq	.L31
  71:main.c        ****                 
 742              		.loc 1 71 0
 743 00b8 0222     		movs	r2, #2
 744 00ba 1146     		mov	r1, r2
 745 00bc 0120     		movs	r0, #1
 746 00be FFF7FEFF 		bl	W5500_spi_write_byte
 747              	.LVL88:
  73:main.c        ****                 
 748              		.loc 1 73 0
 749 00c2 FFF7FEFF 		bl	handle_disconnection
 750              	.LVL89:
  76:main.c        ****                 W5500_spi_write_byte(BLOCK_SOCKET_0_REGISTER, SOCKET_REG_INTERRUPT_MASK, 0x01);
 751              		.loc 1 76 0
 752 00c6 0022     		movs	r2, #0
 753 00c8 2C21     		movs	r1, #44
ARM GAS  C:\Users\d3bug\AppData\Local\Temp\ccmBadDX.s 			page 20


 754 00ca 0120     		movs	r0, #1
 755 00cc FFF7FEFF 		bl	W5500_spi_write_byte
 756              	.LVL90:
  77:main.c        ****             }
 757              		.loc 1 77 0
 758 00d0 0122     		movs	r2, #1
 759 00d2 2C21     		movs	r1, #44
 760 00d4 1046     		mov	r0, r2
 761 00d6 FFF7FEFF 		bl	W5500_spi_write_byte
 762              	.LVL91:
 763              	.L31:
  80:main.c        ****                 // Clear the interrupt flag
 764              		.loc 1 80 0
 765 00da 0E4B     		ldr	r3, .L35+12
 766 00dc 5B78     		ldrb	r3, [r3, #1]	@ zero_extendqisi2
 767 00de 13F0040F 		tst	r3, #4
 768 00e2 ADD0     		beq	.L29
  82:main.c        ****                 
 769              		.loc 1 82 0
 770 00e4 0422     		movs	r2, #4
 771 00e6 0221     		movs	r1, #2
 772 00e8 0120     		movs	r0, #1
 773 00ea FFF7FEFF 		bl	W5500_spi_write_byte
 774              	.LVL92:
  84:main.c        ****                 
 775              		.loc 1 84 0
 776 00ee FFF7FEFF 		bl	handle_data
 777              	.LVL93:
  87:main.c        ****                 W5500_spi_write_byte(BLOCK_SOCKET_0_REGISTER, SOCKET_REG_INTERRUPT_MASK, 0x04 | 0x0
 778              		.loc 1 87 0
 779 00f2 0022     		movs	r2, #0
 780 00f4 2C21     		movs	r1, #44
 781 00f6 0120     		movs	r0, #1
 782 00f8 FFF7FEFF 		bl	W5500_spi_write_byte
 783              	.LVL94:
  88:main.c        ****             }
 784              		.loc 1 88 0
 785 00fc 0622     		movs	r2, #6
 786 00fe 2C21     		movs	r1, #44
 787 0100 0120     		movs	r0, #1
 788 0102 FFF7FEFF 		bl	W5500_spi_write_byte
 789              	.LVL95:
 790 0106 9BE7     		b	.L29
 791              	.L36:
 792              		.align	2
 793              	.L35:
 794 0108 10000000 		.word	.LANCHOR1+16
 795 010c 00000000 		.word	w5500_isr
 796 0110 1C010000 		.word	.LC16
 797 0114 00000000 		.word	.LANCHOR0
 798 0118 38010000 		.word	.LC17
 799 011c 50010000 		.word	.LC18
 800              		.cfi_endproc
 801              	.LFE64:
 802              		.size	main, .-main
 803              		.global	sir_sts
 804              		.global	w5500_interrupt_flag
ARM GAS  C:\Users\d3bug\AppData\Local\Temp\ccmBadDX.s 			page 21


 805              		.section	.rodata
 806              		.align	2
 807              		.set	.LANCHOR1,. + 0
 808              	.LC1:
 809 0000 00       		.byte	0
 810 0001 DE       		.byte	-34
 811 0002 AD       		.byte	-83
 812 0003 BE       		.byte	-66
 813 0004 EF       		.byte	-17
 814 0005 00       		.byte	0
 815 0006 0000     		.space	2
 816              	.LC2:
 817 0008 FF       		.byte	-1
 818 0009 FF       		.byte	-1
 819 000a FF       		.byte	-1
 820 000b 00       		.byte	0
 821              	.LC3:
 822 000c C0       		.byte	-64
 823 000d A8       		.byte	-88
 824 000e 01       		.byte	1
 825 000f 46       		.byte	70
 826              	.LC0:
 827 0010 C0       		.byte	-64
 828 0011 A8       		.byte	-88
 829 0012 89       		.byte	-119
 830 0013 46       		.byte	70
 831              		.section	.rodata.str1.4,"aMS",%progbits,1
 832              		.align	2
 833              	.LC4:
 834 0000 52656D6F 		.ascii	"Remote connection...\015\012\000"
 834      74652063 
 834      6F6E6E65 
 834      6374696F 
 834      6E2E2E2E 
 835 0017 00       		.space	1
 836              	.LC5:
 837 0018 52656D6F 		.ascii	"Remote MAC: %X %X %X %X %X %X\015\012\000"
 837      7465204D 
 837      41433A20 
 837      25582025 
 837      58202558 
 838              	.LC6:
 839 0038 52656D6F 		.ascii	"Remote IP: %d %d %d %d\015\012\000"
 839      74652049 
 839      503A2025 
 839      64202564 
 839      20256420 
 840 0051 000000   		.space	3
 841              	.LC7:
 842 0054 536F636B 		.ascii	"Socket 0 closed\015\012\000"
 842      65742030 
 842      20636C6F 
 842      7365640D 
 842      0A00
 843 0066 0000     		.space	2
 844              	.LC8:
 845 0068 436C6F73 		.ascii	"Closing the socket\015\012\000"
ARM GAS  C:\Users\d3bug\AppData\Local\Temp\ccmBadDX.s 			page 22


 845      696E6720 
 845      74686520 
 845      736F636B 
 845      65740D0A 
 846 007d 000000   		.space	3
 847              	.LC9:
 848 0080 536F636B 		.ascii	"Socket open and listening\015\012\000"
 848      6574206F 
 848      70656E20 
 848      616E6420 
 848      6C697374 
 849              	.LC10:
 850 009c 53697A65 		.ascii	"Size of received data: \000"
 850      206F6620 
 850      72656365 
 850      69766564 
 850      20646174 
 851              	.LC11:
 852 00b4 47657474 		.ascii	"Getting the received data\015\012\000"
 852      696E6720 
 852      74686520 
 852      72656365 
 852      69766564 
 853              	.LC12:
 854 00d0 41646472 		.ascii	"Address of data: \000"
 854      65737320 
 854      6F662064 
 854      6174613A 
 854      2000
 855 00e2 0000     		.space	2
 856              	.LC13:
 857 00e4 42797465 		.ascii	"Bytes received: \000"
 857      73207265 
 857      63656976 
 857      65643A20 
 857      00
 858 00f5 000000   		.space	3
 859              	.LC14:
 860 00f8 4E657720 		.ascii	"New rx addr: \000"
 860      72782061 
 860      6464723A 
 860      2000
 861 0106 0000     		.space	2
 862              	.LC15:
 863 0108 64617461 		.ascii	"data received: %s\015\012\000"
 863      20726563 
 863      65697665 
 863      643A2025 
 863      730D0A00 
 864              	.LC16:
 865 011c 57616974 		.ascii	"Waiting for connection...\015\012\000"
 865      696E6720 
 865      666F7220 
 865      636F6E6E 
 865      65637469 
 866              	.LC17:
 867 0138 536F636B 		.ascii	"Socket 0 interrupt\015\012\000"
ARM GAS  C:\Users\d3bug\AppData\Local\Temp\ccmBadDX.s 			page 23


 867      65742030 
 867      20696E74 
 867      65727275 
 867      70740D0A 
 868 014d 000000   		.space	3
 869              	.LC18:
 870 0150 536F636B 		.ascii	"Socket 0 Interrupt Register: 0x\000"
 870      65742030 
 870      20496E74 
 870      65727275 
 870      70742052 
 871              		.bss
 872              		.set	.LANCHOR0,. + 0
 873              		.type	w5500_interrupt_flag, %object
 874              		.size	w5500_interrupt_flag, 1
 875              	w5500_interrupt_flag:
 876 0000 00       		.space	1
 877              		.type	sir_sts, %object
 878              		.size	sir_sts, 1
 879              	sir_sts:
 880 0001 00       		.space	1
 881              		.text
 882              	.Letext0:
 883              		.file 2 "c:\\program files (x86)\\cypress\\psoc creator\\4.2\\psoc creator\\import\\gnu\\arm\\5.4.
 884              		.file 3 "c:\\program files (x86)\\cypress\\psoc creator\\4.2\\psoc creator\\import\\gnu\\arm\\5.4.
 885              		.file 4 "common.h"
 886              		.file 5 "Generated_Source\\PSoC5/core_cm3.h"
 887              		.file 6 "Generated_Source\\PSoC5/W5500_ISR.h"
 888              		.file 7 "hal_spi.h"
 889              		.file 8 "Generated_Source\\PSoC5/CyLib.h"
 890              		.file 9 "Generated_Source\\PSoC5/UART.h"
 891              		.file 10 "c:\\program files (x86)\\cypress\\psoc creator\\4.2\\psoc creator\\import\\gnu\\arm\\5.4
 892              		.file 11 "Generated_Source\\PSoC5/LED.h"
 893              		.file 12 "Generated_Source\\PSoC5/isr_W5500.h"
 894              		.file 13 "Generated_Source\\PSoC5/SPI.h"