ARM GAS  C:\Users\d3bug\AppData\Local\Temp\ccKfnB1Z.s 			page 1


   1              		.syntax unified
   2              		.cpu cortex-m3
   3              		.fpu softvfp
   4              		.eabi_attribute 20, 1
   5              		.eabi_attribute 21, 1
   6              		.eabi_attribute 23, 3
   7              		.eabi_attribute 24, 1
   8              		.eabi_attribute 25, 1
   9              		.eabi_attribute 26, 1
  10              		.eabi_attribute 30, 1
  11              		.eabi_attribute 34, 1
  12              		.eabi_attribute 18, 4
  13              		.thumb
  14              		.syntax unified
  15              		.file	"socket.c"
  16              		.text
  17              	.Ltext0:
  18              		.cfi_sections	.debug_frame
  19              		.section	.text.W5500_socket_init,"ax",%progbits
  20              		.align	2
  21              		.global	W5500_socket_init
  22              		.thumb
  23              		.thumb_func
  24              		.type	W5500_socket_init, %function
  25              	W5500_socket_init:
  26              	.LFB68:
  27              		.file 1 "socket.c"
   1:socket.c      **** #include "project.h"
   2:socket.c      **** 
   3:socket.c      **** #include <stdint.h>
   4:socket.c      **** #include <stddef.h>
   5:socket.c      **** 
   6:socket.c      **** #include "socket.h"
   7:socket.c      **** #include "hal_spi.h"
   8:socket.c      **** 
   9:socket.c      **** #define SKT_SOCKET_BASE(s)  ((s * 4) + 1)
  10:socket.c      **** #define SKT_TX_BASE(s)      ((s * 4) + 2)
  11:socket.c      **** #define SKT_RX_BASE(s)      ((s * 4) + 3)
  12:socket.c      **** 
  13:socket.c      **** struct skt_t {
  14:socket.c      ****     socket_id       id;
  15:socket.c      ****     socket_sts      status;
  16:socket.c      ****     socket_protocol protocol;
  17:socket.c      ****     socket_mem      tx_memory_kb;
  18:socket.c      ****     socket_mem      rx_memory_kb;
  19:socket.c      ****     uint16_t        src_port;
  20:socket.c      ****     uint8_t         base_addr;
  21:socket.c      ****     uint8_t         tx_addr;
  22:socket.c      ****     uint8_t         rx_addr;
  23:socket.c      ****     uint8_t         imr;
  24:socket.c      **** } skt_t;
  25:socket.c      **** 
  26:socket.c      **** /* Set the _id socket structs to default values */
  27:socket.c      **** #define SKT_DEFAULT_INIT(_id) \
  28:socket.c      **** {   \
  29:socket.c      ****     .id             = _id,                      \
  30:socket.c      ****     .status         = SOCKET_STS_CLOSED,        \
ARM GAS  C:\Users\d3bug\AppData\Local\Temp\ccKfnB1Z.s 			page 2


  31:socket.c      ****     .protocol       = SOCKET_PROTOCOL_CLOSED,   \
  32:socket.c      ****     .tx_memory_kb   = SOCKET_MEM_2KB,           \
  33:socket.c      ****     .rx_memory_kb   = SOCKET_MEM_2KB,           \
  34:socket.c      ****     .src_port       = 0,                        \
  35:socket.c      ****     .base_addr      = SKT_SOCKET_BASE(_id),     \
  36:socket.c      ****     .tx_addr        = SKT_TX_BASE(_id),         \
  37:socket.c      ****     .rx_addr        = SKT_RX_BASE(_id),         \
  38:socket.c      ****     .imr            = 0,                        \
  39:socket.c      **** }\
  40:socket.c      **** 
  41:socket.c      **** struct skt_t _skt[] = {
  42:socket.c      ****     SKT_DEFAULT_INIT(0),
  43:socket.c      ****     SKT_DEFAULT_INIT(1),
  44:socket.c      ****     SKT_DEFAULT_INIT(2),
  45:socket.c      ****     SKT_DEFAULT_INIT(3),
  46:socket.c      ****     SKT_DEFAULT_INIT(4),
  47:socket.c      ****     SKT_DEFAULT_INIT(5),
  48:socket.c      ****     SKT_DEFAULT_INIT(6),
  49:socket.c      ****     SKT_DEFAULT_INIT(7)
  50:socket.c      **** };
  51:socket.c      **** 
  52:socket.c      **** static inline void W5500_socket_write_reg(const uint16_t base, const socket_reg reg, const uint8_t 
  53:socket.c      **** {
  54:socket.c      ****     W5500_spi_write_byte(base, reg, data);
  55:socket.c      **** }
  56:socket.c      **** 
  57:socket.c      **** static inline void W5500_socket_write_reg_buff(uint16_t base, socket_reg reg, const uint8_t *data, 
  58:socket.c      **** {
  59:socket.c      ****     W5500_spi_write(base, reg, data, reg_size);
  60:socket.c      **** }
  61:socket.c      **** 
  62:socket.c      **** static inline uint8_t W5500_socket_read_reg(const uint16_t base, const socket_reg reg)
  63:socket.c      **** {
  64:socket.c      ****     return W5500_spi_read_byte(base, reg);
  65:socket.c      **** }
  66:socket.c      **** 
  67:socket.c      **** static inline void W5500_socket_read_reg_buff(const uint16_t base, const socket_reg reg, uint8_t *d
  68:socket.c      **** {
  69:socket.c      ****     W5500_spi_read(base, reg, data, reg_size);
  70:socket.c      **** }
  71:socket.c      **** 
  72:socket.c      **** static inline void W5500_socket_cmd_wait_for_completion(struct skt_t *socket)
  73:socket.c      **** {
  74:socket.c      ****     while (W5500_socket_read_reg(socket->base_addr, SOCKET_REG_COMMAND)) {
  75:socket.c      ****     }
  76:socket.c      **** }
  77:socket.c      **** 
  78:socket.c      **** struct skt_t *W5500_socket_init(socket_id socket, const uint8_t mode_flags,
  79:socket.c      ****                                 const socket_mem tx_mem, const socket_mem rx_mem)
  80:socket.c      **** {
  28              		.loc 1 80 0
  29              		.cfi_startproc
  30              		@ args = 0, pretend = 0, frame = 0
  31              		@ frame_needed = 0, uses_anonymous_args = 0
  32              	.LVL0:
  33 0000 2DE9F041 		push	{r4, r5, r6, r7, r8, lr}
  34              		.cfi_def_cfa_offset 24
ARM GAS  C:\Users\d3bug\AppData\Local\Temp\ccKfnB1Z.s 			page 3


  35              		.cfi_offset 4, -24
  36              		.cfi_offset 5, -20
  37              		.cfi_offset 6, -16
  38              		.cfi_offset 7, -12
  39              		.cfi_offset 8, -8
  40              		.cfi_offset 14, -4
  81:socket.c      ****     struct skt_t *tmp = &_skt[socket];
  41              		.loc 1 81 0
  42 0004 4400     		lsls	r4, r0, #1
  43 0006 0444     		add	r4, r4, r0
  44 0008 A500     		lsls	r5, r4, #2
  45 000a 124E     		ldr	r6, .L6
  46 000c 2E44     		add	r6, r6, r5
  47              	.LVL1:
  82:socket.c      ****     
  83:socket.c      ****     if ((SOCKET_STS_CLOSED != tmp->status) || (8 <= socket)) {
  48              		.loc 1 83 0
  49 000e 7478     		ldrb	r4, [r6, #1]	@ zero_extendqisi2
  50 0010 D4B9     		cbnz	r4, .L3
  51              		.loc 1 83 0 is_stmt 0 discriminator 1
  52 0012 0728     		cmp	r0, #7
  53 0014 1BD8     		bhi	.L4
  54 0016 9646     		mov	lr, r2
  55 0018 0A46     		mov	r2, r1
  56              	.LVL2:
  84:socket.c      ****         return NULL;
  85:socket.c      ****     }
  86:socket.c      ****     
  87:socket.c      ****     // Settings...
  88:socket.c      ****     //tmp->base_addr      = SKT_SOCKET_BASE(socket); // <- may be not necessary, it's already initi
  89:socket.c      ****     //tmp->tx_addr        = SKT_TX_BASE(socket); // <- may be not necessary
  90:socket.c      ****     //tmp->rx_addr        = SKT_RX_BASE(socket); // <- may be not necessary
  91:socket.c      ****     //tmp->status         = SOCKET_STS_CLOSED; // <- may be not necessary
  92:socket.c      ****     tmp->protocol       = mode_flags & 0x0F;
  57              		.loc 1 92 0 is_stmt 1
  58 001a 02F00F01 		and	r1, r2, #15
  59              	.LVL3:
  60 001e B170     		strb	r1, [r6, #2]
  93:socket.c      ****     tmp->tx_memory_kb   = tx_mem;
  61              		.loc 1 93 0
  62 0020 86F803E0 		strb	lr, [r6, #3]
  94:socket.c      ****     tmp->rx_memory_kb   = rx_mem;
  63              		.loc 1 94 0
  64 0024 3371     		strb	r3, [r6, #4]
  65              	.LVL4:
  66              	.LBB18:
  67              	.LBB19:
  54:socket.c      **** }
  68              		.loc 1 54 0
  69 0026 0021     		movs	r1, #0
  70 0028 307A     		ldrb	r0, [r6, #8]	@ zero_extendqisi2
  71              	.LVL5:
  72 002a FFF7FEFF 		bl	W5500_spi_write_byte
  73              	.LVL6:
  74              	.LBE19:
  75              	.LBE18:
  76              	.LBB20:
ARM GAS  C:\Users\d3bug\AppData\Local\Temp\ccKfnB1Z.s 			page 4


  77              	.LBB21:
  78 002e F278     		ldrb	r2, [r6, #3]	@ zero_extendqisi2
  79 0030 1F21     		movs	r1, #31
  80 0032 307A     		ldrb	r0, [r6, #8]	@ zero_extendqisi2
  81 0034 FFF7FEFF 		bl	W5500_spi_write_byte
  82              	.LVL7:
  83              	.LBE21:
  84              	.LBE20:
  85              	.LBB22:
  86              	.LBB23:
  87 0038 3279     		ldrb	r2, [r6, #4]	@ zero_extendqisi2
  88 003a 1E21     		movs	r1, #30
  89 003c 307A     		ldrb	r0, [r6, #8]	@ zero_extendqisi2
  90 003e FFF7FEFF 		bl	W5500_spi_write_byte
  91              	.LVL8:
  92              	.LBE23:
  93              	.LBE22:
  95:socket.c      ****     
  96:socket.c      ****     // both can be uint16_t and should be swapped on every operation
  97:socket.c      ****     // get current tx_write_ptr, it should be 0
  98:socket.c      ****     // get current rx_write_ptr, it should be 0
  99:socket.c      ****     
 100:socket.c      ****     W5500_socket_write_reg(tmp->base_addr, SOCKET_REG_MODE, mode_flags);
 101:socket.c      ****     W5500_socket_write_reg(tmp->base_addr, SOCKET_REG_TX_BUFFER_SIZE, tmp->tx_memory_kb);
 102:socket.c      ****     W5500_socket_write_reg(tmp->base_addr, SOCKET_REG_RX_BUFFER_SIZE, tmp->rx_memory_kb);
 103:socket.c      ****     
 104:socket.c      ****     return tmp;
  94              		.loc 1 104 0
  95 0042 3046     		mov	r0, r6
  96 0044 BDE8F081 		pop	{r4, r5, r6, r7, r8, pc}
  97              	.LVL9:
  98              	.L3:
  84:socket.c      ****     }
  99              		.loc 1 84 0
 100 0048 0020     		movs	r0, #0
 101              	.LVL10:
 102 004a BDE8F081 		pop	{r4, r5, r6, r7, r8, pc}
 103              	.LVL11:
 104              	.L4:
 105 004e 0020     		movs	r0, #0
 106              	.LVL12:
 105:socket.c      **** }
 107              		.loc 1 105 0
 108 0050 BDE8F081 		pop	{r4, r5, r6, r7, r8, pc}
 109              	.LVL13:
 110              	.L7:
 111              		.align	2
 112              	.L6:
 113 0054 00000000 		.word	.LANCHOR0
 114              		.cfi_endproc
 115              	.LFE68:
 116              		.size	W5500_socket_init, .-W5500_socket_init
 117              		.section	.text.W5500_socket_set_port,"ax",%progbits
 118              		.align	2
 119              		.global	W5500_socket_set_port
 120              		.thumb
 121              		.thumb_func
ARM GAS  C:\Users\d3bug\AppData\Local\Temp\ccKfnB1Z.s 			page 5


 122              		.type	W5500_socket_set_port, %function
 123              	W5500_socket_set_port:
 124              	.LFB69:
 106:socket.c      **** 
 107:socket.c      **** void W5500_socket_set_port(struct skt_t *socket, const uint16_t port)
 108:socket.c      **** {
 125              		.loc 1 108 0
 126              		.cfi_startproc
 127              		@ args = 0, pretend = 0, frame = 8
 128              		@ frame_needed = 0, uses_anonymous_args = 0
 129              	.LVL14:
 130 0000 00B5     		push	{lr}
 131              		.cfi_def_cfa_offset 4
 132              		.cfi_offset 14, -4
 133 0002 83B0     		sub	sp, sp, #12
 134              		.cfi_def_cfa_offset 16
 109:socket.c      ****     socket->src_port = port;
 135              		.loc 1 109 0
 136 0004 C180     		strh	r1, [r0, #6]	@ movhi
 110:socket.c      ****     uint8_t _port[] = {((port & 0xFF00) >> 8), (port & 0x00FF)};
 137              		.loc 1 110 0
 138 0006 0B0A     		lsrs	r3, r1, #8
 139 0008 8DF80430 		strb	r3, [sp, #4]
 140 000c 8DF80510 		strb	r1, [sp, #5]
 141              	.LVL15:
 142              	.LBB24:
 143              	.LBB25:
  59:socket.c      **** }
 144              		.loc 1 59 0
 145 0010 0223     		movs	r3, #2
 146 0012 01AA     		add	r2, sp, #4
 147              	.LVL16:
 148 0014 0421     		movs	r1, #4
 149              	.LVL17:
 150 0016 007A     		ldrb	r0, [r0, #8]	@ zero_extendqisi2
 151              	.LVL18:
 152 0018 FFF7FEFF 		bl	W5500_spi_write
 153              	.LVL19:
 154              	.LBE25:
 155              	.LBE24:
 111:socket.c      ****     
 112:socket.c      ****     W5500_socket_write_reg_buff(socket->base_addr, SOCKET_REG_SOURCE_PORT0, _port, sizeof(_port));
 113:socket.c      **** }
 156              		.loc 1 113 0
 157 001c 03B0     		add	sp, sp, #12
 158              		.cfi_def_cfa_offset 4
 159              		@ sp needed
 160 001e 5DF804FB 		ldr	pc, [sp], #4
 161              		.cfi_endproc
 162              	.LFE69:
 163              		.size	W5500_socket_set_port, .-W5500_socket_set_port
 164 0022 00BF     		.section	.text.W5500_socket_cmd,"ax",%progbits
 165              		.align	2
 166              		.global	W5500_socket_cmd
 167              		.thumb
 168              		.thumb_func
 169              		.type	W5500_socket_cmd, %function
ARM GAS  C:\Users\d3bug\AppData\Local\Temp\ccKfnB1Z.s 			page 6


 170              	W5500_socket_cmd:
 171              	.LFB70:
 114:socket.c      **** 
 115:socket.c      **** void W5500_socket_cmd(struct skt_t *socket, const socket_cmd cmd)
 116:socket.c      **** {
 172              		.loc 1 116 0
 173              		.cfi_startproc
 174              		@ args = 0, pretend = 0, frame = 0
 175              		@ frame_needed = 0, uses_anonymous_args = 0
 176              	.LVL20:
 177 0000 10B5     		push	{r4, lr}
 178              		.cfi_def_cfa_offset 8
 179              		.cfi_offset 4, -8
 180              		.cfi_offset 14, -4
 181 0002 0446     		mov	r4, r0
 182              	.LVL21:
 183              	.LBB26:
 184              	.LBB27:
  54:socket.c      **** }
 185              		.loc 1 54 0
 186 0004 0A46     		mov	r2, r1
 187 0006 0121     		movs	r1, #1
 188              	.LVL22:
 189 0008 007A     		ldrb	r0, [r0, #8]	@ zero_extendqisi2
 190              	.LVL23:
 191 000a FFF7FEFF 		bl	W5500_spi_write_byte
 192              	.LVL24:
 193              	.L11:
 194              	.LBE27:
 195              	.LBE26:
 196              	.LBB28:
 197              	.LBB29:
 198              	.LBB30:
 199              	.LBB31:
  64:socket.c      **** }
 200              		.loc 1 64 0
 201 000e 0121     		movs	r1, #1
 202 0010 207A     		ldrb	r0, [r4, #8]	@ zero_extendqisi2
 203 0012 FFF7FEFF 		bl	W5500_spi_read_byte
 204              	.LVL25:
 205              	.LBE31:
 206              	.LBE30:
  74:socket.c      ****     }
 207              		.loc 1 74 0
 208 0016 0028     		cmp	r0, #0
 209 0018 F9D1     		bne	.L11
 210              	.LBE29:
 211              	.LBE28:
 117:socket.c      ****     W5500_socket_write_reg(socket->base_addr, SOCKET_REG_COMMAND, cmd);
 118:socket.c      ****     W5500_socket_cmd_wait_for_completion(socket);
 119:socket.c      **** }
 212              		.loc 1 119 0
 213 001a 10BD     		pop	{r4, pc}
 214              		.cfi_endproc
 215              	.LFE70:
 216              		.size	W5500_socket_cmd, .-W5500_socket_cmd
 217              		.section	.text.W5500_socket_get_status,"ax",%progbits
ARM GAS  C:\Users\d3bug\AppData\Local\Temp\ccKfnB1Z.s 			page 7


 218              		.align	2
 219              		.global	W5500_socket_get_status
 220              		.thumb
 221              		.thumb_func
 222              		.type	W5500_socket_get_status, %function
 223              	W5500_socket_get_status:
 224              	.LFB71:
 120:socket.c      **** 
 121:socket.c      **** socket_sts W5500_socket_get_status(struct skt_t *socket)
 122:socket.c      **** {
 225              		.loc 1 122 0
 226              		.cfi_startproc
 227              		@ args = 0, pretend = 0, frame = 0
 228              		@ frame_needed = 0, uses_anonymous_args = 0
 229              	.LVL26:
 230 0000 10B5     		push	{r4, lr}
 231              		.cfi_def_cfa_offset 8
 232              		.cfi_offset 4, -8
 233              		.cfi_offset 14, -4
 234 0002 0446     		mov	r4, r0
 123:socket.c      ****     socket->status = W5500_spi_read_byte(socket->base_addr, SOCKET_REG_STATUS);
 235              		.loc 1 123 0
 236 0004 0321     		movs	r1, #3
 237 0006 007A     		ldrb	r0, [r0, #8]	@ zero_extendqisi2
 238              	.LVL27:
 239 0008 FFF7FEFF 		bl	W5500_spi_read_byte
 240              	.LVL28:
 241 000c 6070     		strb	r0, [r4, #1]
 124:socket.c      ****     return socket->status;
 125:socket.c      **** }
 242              		.loc 1 125 0
 243 000e 10BD     		pop	{r4, pc}
 244              		.cfi_endproc
 245              	.LFE71:
 246              		.size	W5500_socket_get_status, .-W5500_socket_get_status
 247              		.section	.text.W5500_socket_receive,"ax",%progbits
 248              		.align	2
 249              		.global	W5500_socket_receive
 250              		.thumb
 251              		.thumb_func
 252              		.type	W5500_socket_receive, %function
 253              	W5500_socket_receive:
 254              	.LFB72:
 126:socket.c      **** 
 127:socket.c      **** void W5500_socket_receive(struct skt_t *socket, uint8_t *data, size_t data_size)
 128:socket.c      **** {
 255              		.loc 1 128 0
 256              		.cfi_startproc
 257              		@ args = 0, pretend = 0, frame = 0
 258              		@ frame_needed = 0, uses_anonymous_args = 0
 259              		@ link register save eliminated.
 260              	.LVL29:
 261 0000 7047     		bx	lr
 262              		.cfi_endproc
 263              	.LFE72:
 264              		.size	W5500_socket_receive, .-W5500_socket_receive
 265 0002 00BF     		.section	.text.W5500_socket_get_received_data_size,"ax",%progbits
ARM GAS  C:\Users\d3bug\AppData\Local\Temp\ccKfnB1Z.s 			page 8


 266              		.align	2
 267              		.global	W5500_socket_get_received_data_size
 268              		.thumb
 269              		.thumb_func
 270              		.type	W5500_socket_get_received_data_size, %function
 271              	W5500_socket_get_received_data_size:
 272              	.LFB73:
 129:socket.c      ****     (void)socket;
 130:socket.c      ****     (void)data;
 131:socket.c      ****     (void)data_size;
 132:socket.c      **** }
 133:socket.c      **** 
 134:socket.c      **** uint16_t W5500_socket_get_received_data_size(struct skt_t *socket)
 135:socket.c      **** {
 273              		.loc 1 135 0
 274              		.cfi_startproc
 275              		@ args = 0, pretend = 0, frame = 0
 276              		@ frame_needed = 0, uses_anonymous_args = 0
 277              	.LVL30:
 278              		.loc 1 135 0
 279 0000 38B5     		push	{r3, r4, r5, lr}
 280              		.cfi_def_cfa_offset 16
 281              		.cfi_offset 3, -16
 282              		.cfi_offset 4, -12
 283              		.cfi_offset 5, -8
 284              		.cfi_offset 14, -4
 285 0002 0546     		mov	r5, r0
 136:socket.c      ****     uint8_t skt_rcv_data_size[2] = {0};
 137:socket.c      ****     
 138:socket.c      ****     skt_rcv_data_size[0] = W5500_spi_read_byte(socket->base_addr, SOCKET_REG_RX_RECEIVED_SIZE0);
 286              		.loc 1 138 0
 287 0004 2621     		movs	r1, #38
 288 0006 007A     		ldrb	r0, [r0, #8]	@ zero_extendqisi2
 289              	.LVL31:
 290 0008 FFF7FEFF 		bl	W5500_spi_read_byte
 291              	.LVL32:
 292 000c 0446     		mov	r4, r0
 139:socket.c      ****     skt_rcv_data_size[1] = W5500_spi_read_byte(socket->base_addr, SOCKET_REG_RX_RECEIVED_SIZE1);
 293              		.loc 1 139 0
 294 000e 2721     		movs	r1, #39
 295 0010 287A     		ldrb	r0, [r5, #8]	@ zero_extendqisi2
 296 0012 FFF7FEFF 		bl	W5500_spi_read_byte
 297              	.LVL33:
 140:socket.c      ****     return (skt_rcv_data_size[0] << 8) | skt_rcv_data_size[1];
 298              		.loc 1 140 0
 299 0016 40EA0420 		orr	r0, r0, r4, lsl #8
 141:socket.c      **** }
 300              		.loc 1 141 0
 301 001a 80B2     		uxth	r0, r0
 302 001c 38BD     		pop	{r3, r4, r5, pc}
 303              		.cfi_endproc
 304              	.LFE73:
 305              		.size	W5500_socket_get_received_data_size, .-W5500_socket_get_received_data_size
 306 001e 00BF     		.section	.text.W5500_socket_transmit,"ax",%progbits
 307              		.align	2
 308              		.global	W5500_socket_transmit
 309              		.thumb
ARM GAS  C:\Users\d3bug\AppData\Local\Temp\ccKfnB1Z.s 			page 9


 310              		.thumb_func
 311              		.type	W5500_socket_transmit, %function
 312              	W5500_socket_transmit:
 313              	.LFB74:
 142:socket.c      **** 
 143:socket.c      **** void W5500_socket_transmit(struct skt_t *socket, uint8_t *data, size_t data_size)
 144:socket.c      **** {
 314              		.loc 1 144 0
 315              		.cfi_startproc
 316              		@ args = 0, pretend = 0, frame = 0
 317              		@ frame_needed = 0, uses_anonymous_args = 0
 318              		@ link register save eliminated.
 319              	.LVL34:
 320 0000 7047     		bx	lr
 321              		.cfi_endproc
 322              	.LFE74:
 323              		.size	W5500_socket_transmit, .-W5500_socket_transmit
 324 0002 00BF     		.section	.text.W5500_socket_get_transmit_free,"ax",%progbits
 325              		.align	2
 326              		.global	W5500_socket_get_transmit_free
 327              		.thumb
 328              		.thumb_func
 329              		.type	W5500_socket_get_transmit_free, %function
 330              	W5500_socket_get_transmit_free:
 331              	.LFB75:
 145:socket.c      ****     (void)socket;
 146:socket.c      ****     (void)data;
 147:socket.c      ****     (void)data_size;
 148:socket.c      **** }
 149:socket.c      **** 
 150:socket.c      **** uint16_t W5500_socket_get_transmit_free(struct skt_t *socket)
 151:socket.c      **** {
 332              		.loc 1 151 0
 333              		.cfi_startproc
 334              		@ args = 0, pretend = 0, frame = 0
 335              		@ frame_needed = 0, uses_anonymous_args = 0
 336              		@ link register save eliminated.
 337              	.LVL35:
 152:socket.c      ****     (void)socket;
 153:socket.c      ****     
 154:socket.c      ****     return 0;
 155:socket.c      **** }
 338              		.loc 1 155 0
 339 0000 0020     		movs	r0, #0
 340              	.LVL36:
 341 0002 7047     		bx	lr
 342              		.cfi_endproc
 343              	.LFE75:
 344              		.size	W5500_socket_get_transmit_free, .-W5500_socket_get_transmit_free
 345              		.section	.text.W5500_socket_tx_free_size,"ax",%progbits
 346              		.align	2
 347              		.global	W5500_socket_tx_free_size
 348              		.thumb
 349              		.thumb_func
 350              		.type	W5500_socket_tx_free_size, %function
 351              	W5500_socket_tx_free_size:
 352              	.LFB76:
ARM GAS  C:\Users\d3bug\AppData\Local\Temp\ccKfnB1Z.s 			page 10


 156:socket.c      **** 
 157:socket.c      **** /* new api */
 158:socket.c      **** uint16_t W5500_socket_tx_free_size(struct skt_t *socket)
 159:socket.c      **** {
 353              		.loc 1 159 0
 354              		.cfi_startproc
 355              		@ args = 0, pretend = 0, frame = 0
 356              		@ frame_needed = 0, uses_anonymous_args = 0
 357              	.LVL37:
 358 0000 38B5     		push	{r3, r4, r5, lr}
 359              		.cfi_def_cfa_offset 16
 360              		.cfi_offset 3, -16
 361              		.cfi_offset 4, -12
 362              		.cfi_offset 5, -8
 363              		.cfi_offset 14, -4
 364 0002 0546     		mov	r5, r0
 365              	.LVL38:
 160:socket.c      ****     uint16_t result = 0;
 161:socket.c      ****     uint8_t free_0 = 0;
 162:socket.c      ****     uint8_t free_1 = 0;
 163:socket.c      ****     
 164:socket.c      ****     free_0 = W5500_spi_read_byte(socket->base_addr, SOCKET_REG_TX_FREE_SIZE0);
 366              		.loc 1 164 0
 367 0004 2021     		movs	r1, #32
 368 0006 007A     		ldrb	r0, [r0, #8]	@ zero_extendqisi2
 369              	.LVL39:
 370 0008 FFF7FEFF 		bl	W5500_spi_read_byte
 371              	.LVL40:
 372 000c 0446     		mov	r4, r0
 373              	.LVL41:
 165:socket.c      ****     free_1 = W5500_spi_read_byte(socket->base_addr, SOCKET_REG_TX_FREE_SIZE1);
 374              		.loc 1 165 0
 375 000e 2121     		movs	r1, #33
 376 0010 287A     		ldrb	r0, [r5, #8]	@ zero_extendqisi2
 377 0012 FFF7FEFF 		bl	W5500_spi_read_byte
 378              	.LVL42:
 166:socket.c      ****     
 167:socket.c      ****     result = (free_0 << 8) | free_1;
 379              		.loc 1 167 0
 380 0016 40EA0420 		orr	r0, r0, r4, lsl #8
 381              	.LVL43:
 168:socket.c      ****     
 169:socket.c      ****     return result;
 170:socket.c      **** }
 382              		.loc 1 170 0
 383 001a 80B2     		uxth	r0, r0
 384 001c 38BD     		pop	{r3, r4, r5, pc}
 385              		.cfi_endproc
 386              	.LFE76:
 387              		.size	W5500_socket_tx_free_size, .-W5500_socket_tx_free_size
 388 001e 00BF     		.section	.text.W5500_socket_tx_read_ptr,"ax",%progbits
 389              		.align	2
 390              		.global	W5500_socket_tx_read_ptr
 391              		.thumb
 392              		.thumb_func
 393              		.type	W5500_socket_tx_read_ptr, %function
 394              	W5500_socket_tx_read_ptr:
ARM GAS  C:\Users\d3bug\AppData\Local\Temp\ccKfnB1Z.s 			page 11


 395              	.LFB77:
 171:socket.c      **** 
 172:socket.c      **** uint16_t W5500_socket_tx_read_ptr(struct skt_t *socket)
 173:socket.c      **** {
 396              		.loc 1 173 0
 397              		.cfi_startproc
 398              		@ args = 0, pretend = 0, frame = 0
 399              		@ frame_needed = 0, uses_anonymous_args = 0
 400              	.LVL44:
 401 0000 38B5     		push	{r3, r4, r5, lr}
 402              		.cfi_def_cfa_offset 16
 403              		.cfi_offset 3, -16
 404              		.cfi_offset 4, -12
 405              		.cfi_offset 5, -8
 406              		.cfi_offset 14, -4
 407 0002 0546     		mov	r5, r0
 408              	.LVL45:
 174:socket.c      ****     uint16_t result = 0;
 175:socket.c      ****     uint8_t read_0 = 0;
 176:socket.c      ****     uint8_t read_1 = 0;
 177:socket.c      ****     
 178:socket.c      ****     read_0 = W5500_spi_read_byte(socket->base_addr, SOCKET_REG_TX_READ_POINTER0);
 409              		.loc 1 178 0
 410 0004 2221     		movs	r1, #34
 411 0006 007A     		ldrb	r0, [r0, #8]	@ zero_extendqisi2
 412              	.LVL46:
 413 0008 FFF7FEFF 		bl	W5500_spi_read_byte
 414              	.LVL47:
 415 000c 0446     		mov	r4, r0
 416              	.LVL48:
 179:socket.c      ****     read_1 = W5500_spi_read_byte(socket->base_addr, SOCKET_REG_TX_READ_POINTER1);
 417              		.loc 1 179 0
 418 000e 2321     		movs	r1, #35
 419 0010 287A     		ldrb	r0, [r5, #8]	@ zero_extendqisi2
 420 0012 FFF7FEFF 		bl	W5500_spi_read_byte
 421              	.LVL49:
 180:socket.c      ****     
 181:socket.c      ****     result = (read_0 << 8) | read_1;
 422              		.loc 1 181 0
 423 0016 40EA0420 		orr	r0, r0, r4, lsl #8
 424              	.LVL50:
 182:socket.c      ****     
 183:socket.c      ****     return result;
 184:socket.c      **** }
 425              		.loc 1 184 0
 426 001a 80B2     		uxth	r0, r0
 427 001c 38BD     		pop	{r3, r4, r5, pc}
 428              		.cfi_endproc
 429              	.LFE77:
 430              		.size	W5500_socket_tx_read_ptr, .-W5500_socket_tx_read_ptr
 431 001e 00BF     		.section	.text.W5500_socket_tx_write_ptr,"ax",%progbits
 432              		.align	2
 433              		.global	W5500_socket_tx_write_ptr
 434              		.thumb
 435              		.thumb_func
 436              		.type	W5500_socket_tx_write_ptr, %function
 437              	W5500_socket_tx_write_ptr:
ARM GAS  C:\Users\d3bug\AppData\Local\Temp\ccKfnB1Z.s 			page 12


 438              	.LFB78:
 185:socket.c      **** 
 186:socket.c      **** uint16_t W5500_socket_tx_write_ptr(struct skt_t *socket)
 187:socket.c      **** {
 439              		.loc 1 187 0
 440              		.cfi_startproc
 441              		@ args = 0, pretend = 0, frame = 0
 442              		@ frame_needed = 0, uses_anonymous_args = 0
 443              	.LVL51:
 444 0000 38B5     		push	{r3, r4, r5, lr}
 445              		.cfi_def_cfa_offset 16
 446              		.cfi_offset 3, -16
 447              		.cfi_offset 4, -12
 448              		.cfi_offset 5, -8
 449              		.cfi_offset 14, -4
 450 0002 0546     		mov	r5, r0
 451              	.LVL52:
 188:socket.c      ****     uint16_t result = 0;
 189:socket.c      ****     uint8_t read_0 = 0;
 190:socket.c      ****     uint8_t read_1 = 0;
 191:socket.c      ****     
 192:socket.c      ****     read_0 = W5500_spi_read_byte(socket->base_addr, SOCKET_REG_TX_WRITE_POINTER0);
 452              		.loc 1 192 0
 453 0004 2421     		movs	r1, #36
 454 0006 007A     		ldrb	r0, [r0, #8]	@ zero_extendqisi2
 455              	.LVL53:
 456 0008 FFF7FEFF 		bl	W5500_spi_read_byte
 457              	.LVL54:
 458 000c 0446     		mov	r4, r0
 459              	.LVL55:
 193:socket.c      ****     read_1 = W5500_spi_read_byte(socket->base_addr, SOCKET_REG_TX_WRITE_POINTER1);
 460              		.loc 1 193 0
 461 000e 2521     		movs	r1, #37
 462 0010 287A     		ldrb	r0, [r5, #8]	@ zero_extendqisi2
 463 0012 FFF7FEFF 		bl	W5500_spi_read_byte
 464              	.LVL56:
 194:socket.c      ****     
 195:socket.c      ****     result = (read_0 << 8) | read_1;
 465              		.loc 1 195 0
 466 0016 40EA0420 		orr	r0, r0, r4, lsl #8
 467              	.LVL57:
 196:socket.c      ****     
 197:socket.c      ****     return result;
 198:socket.c      **** }
 468              		.loc 1 198 0
 469 001a 80B2     		uxth	r0, r0
 470 001c 38BD     		pop	{r3, r4, r5, pc}
 471              		.cfi_endproc
 472              	.LFE78:
 473              		.size	W5500_socket_tx_write_ptr, .-W5500_socket_tx_write_ptr
 474 001e 00BF     		.section	.text.W5500_socket_tx_update_write_ptr,"ax",%progbits
 475              		.align	2
 476              		.global	W5500_socket_tx_update_write_ptr
 477              		.thumb
 478              		.thumb_func
 479              		.type	W5500_socket_tx_update_write_ptr, %function
 480              	W5500_socket_tx_update_write_ptr:
ARM GAS  C:\Users\d3bug\AppData\Local\Temp\ccKfnB1Z.s 			page 13


 481              	.LFB79:
 199:socket.c      **** 
 200:socket.c      **** void W5500_socket_tx_update_write_ptr(struct skt_t *socket, uint16_t new_addr)
 201:socket.c      **** {
 482              		.loc 1 201 0
 483              		.cfi_startproc
 484              		@ args = 0, pretend = 0, frame = 0
 485              		@ frame_needed = 0, uses_anonymous_args = 0
 486              	.LVL58:
 487 0000 38B5     		push	{r3, r4, r5, lr}
 488              		.cfi_def_cfa_offset 16
 489              		.cfi_offset 3, -16
 490              		.cfi_offset 4, -12
 491              		.cfi_offset 5, -8
 492              		.cfi_offset 14, -4
 493 0002 0446     		mov	r4, r0
 494 0004 0D46     		mov	r5, r1
 202:socket.c      ****     W5500_spi_write_byte(socket->base_addr, SOCKET_REG_TX_WRITE_POINTER0, (new_addr & 0xFF00) >> 8)
 495              		.loc 1 202 0
 496 0006 0A0A     		lsrs	r2, r1, #8
 497 0008 2421     		movs	r1, #36
 498              	.LVL59:
 499 000a 007A     		ldrb	r0, [r0, #8]	@ zero_extendqisi2
 500              	.LVL60:
 501 000c FFF7FEFF 		bl	W5500_spi_write_byte
 502              	.LVL61:
 203:socket.c      ****     W5500_spi_write_byte(socket->base_addr, SOCKET_REG_TX_WRITE_POINTER1, new_addr & 0x00FF);
 503              		.loc 1 203 0
 504 0010 EAB2     		uxtb	r2, r5
 505 0012 2521     		movs	r1, #37
 506 0014 207A     		ldrb	r0, [r4, #8]	@ zero_extendqisi2
 507 0016 FFF7FEFF 		bl	W5500_spi_write_byte
 508              	.LVL62:
 509 001a 38BD     		pop	{r3, r4, r5, pc}
 510              		.cfi_endproc
 511              	.LFE79:
 512              		.size	W5500_socket_tx_update_write_ptr, .-W5500_socket_tx_update_write_ptr
 513              		.section	.text.W5500_socket_rx_rcv_size,"ax",%progbits
 514              		.align	2
 515              		.global	W5500_socket_rx_rcv_size
 516              		.thumb
 517              		.thumb_func
 518              		.type	W5500_socket_rx_rcv_size, %function
 519              	W5500_socket_rx_rcv_size:
 520              	.LFB80:
 204:socket.c      **** }
 205:socket.c      **** 
 206:socket.c      **** uint16_t W5500_socket_rx_rcv_size(struct skt_t *socket)
 207:socket.c      **** {
 521              		.loc 1 207 0
 522              		.cfi_startproc
 523              		@ args = 0, pretend = 0, frame = 0
 524              		@ frame_needed = 0, uses_anonymous_args = 0
 525              	.LVL63:
 526 0000 38B5     		push	{r3, r4, r5, lr}
 527              		.cfi_def_cfa_offset 16
 528              		.cfi_offset 3, -16
ARM GAS  C:\Users\d3bug\AppData\Local\Temp\ccKfnB1Z.s 			page 14


 529              		.cfi_offset 4, -12
 530              		.cfi_offset 5, -8
 531              		.cfi_offset 14, -4
 532 0002 0546     		mov	r5, r0
 208:socket.c      ****     uint8_t skt_rcv_data_size[2] = {0};
 209:socket.c      ****     
 210:socket.c      ****     skt_rcv_data_size[0] = W5500_spi_read_byte(socket->base_addr, SOCKET_REG_RX_RECEIVED_SIZE0);
 533              		.loc 1 210 0
 534 0004 2621     		movs	r1, #38
 535 0006 007A     		ldrb	r0, [r0, #8]	@ zero_extendqisi2
 536              	.LVL64:
 537 0008 FFF7FEFF 		bl	W5500_spi_read_byte
 538              	.LVL65:
 539 000c 0446     		mov	r4, r0
 211:socket.c      ****     skt_rcv_data_size[1] = W5500_spi_read_byte(socket->base_addr, SOCKET_REG_RX_RECEIVED_SIZE1);
 540              		.loc 1 211 0
 541 000e 2721     		movs	r1, #39
 542 0010 287A     		ldrb	r0, [r5, #8]	@ zero_extendqisi2
 543 0012 FFF7FEFF 		bl	W5500_spi_read_byte
 544              	.LVL66:
 212:socket.c      ****     return (skt_rcv_data_size[0] << 8) | skt_rcv_data_size[1];
 545              		.loc 1 212 0
 546 0016 40EA0420 		orr	r0, r0, r4, lsl #8
 213:socket.c      **** }
 547              		.loc 1 213 0
 548 001a 80B2     		uxth	r0, r0
 549 001c 38BD     		pop	{r3, r4, r5, pc}
 550              		.cfi_endproc
 551              	.LFE80:
 552              		.size	W5500_socket_rx_rcv_size, .-W5500_socket_rx_rcv_size
 553 001e 00BF     		.section	.text.W5500_socket_rx_read_ptr,"ax",%progbits
 554              		.align	2
 555              		.global	W5500_socket_rx_read_ptr
 556              		.thumb
 557              		.thumb_func
 558              		.type	W5500_socket_rx_read_ptr, %function
 559              	W5500_socket_rx_read_ptr:
 560              	.LFB81:
 214:socket.c      **** 
 215:socket.c      **** /* Read Sn_RX_RD (Socket n RX Read Pointer) to get RX Data Start Address */
 216:socket.c      **** uint16_t W5500_socket_rx_read_ptr(struct skt_t *socket)
 217:socket.c      **** {
 561              		.loc 1 217 0
 562              		.cfi_startproc
 563              		@ args = 0, pretend = 0, frame = 0
 564              		@ frame_needed = 0, uses_anonymous_args = 0
 565              	.LVL67:
 566 0000 38B5     		push	{r3, r4, r5, lr}
 567              		.cfi_def_cfa_offset 16
 568              		.cfi_offset 3, -16
 569              		.cfi_offset 4, -12
 570              		.cfi_offset 5, -8
 571              		.cfi_offset 14, -4
 572 0002 0546     		mov	r5, r0
 573              	.LVL68:
 218:socket.c      ****     uint16_t result = 0;
 219:socket.c      ****     uint8_t read_0 = 0;
ARM GAS  C:\Users\d3bug\AppData\Local\Temp\ccKfnB1Z.s 			page 15


 220:socket.c      ****     uint8_t read_1 = 0;
 221:socket.c      ****     
 222:socket.c      ****     read_0 = W5500_spi_read_byte(socket->base_addr, SOCKET_REG_RX_READ_POINTER0);
 574              		.loc 1 222 0
 575 0004 2821     		movs	r1, #40
 576 0006 007A     		ldrb	r0, [r0, #8]	@ zero_extendqisi2
 577              	.LVL69:
 578 0008 FFF7FEFF 		bl	W5500_spi_read_byte
 579              	.LVL70:
 580 000c 0446     		mov	r4, r0
 581              	.LVL71:
 223:socket.c      ****     read_1 = W5500_spi_read_byte(socket->base_addr, SOCKET_REG_RX_READ_POINTER1);
 582              		.loc 1 223 0
 583 000e 2921     		movs	r1, #41
 584 0010 287A     		ldrb	r0, [r5, #8]	@ zero_extendqisi2
 585 0012 FFF7FEFF 		bl	W5500_spi_read_byte
 586              	.LVL72:
 224:socket.c      ****     
 225:socket.c      ****     result = (read_0 << 8) | read_1;
 587              		.loc 1 225 0
 588 0016 40EA0420 		orr	r0, r0, r4, lsl #8
 589              	.LVL73:
 226:socket.c      ****     
 227:socket.c      ****     return result;
 228:socket.c      **** }
 590              		.loc 1 228 0
 591 001a 80B2     		uxth	r0, r0
 592 001c 38BD     		pop	{r3, r4, r5, pc}
 593              		.cfi_endproc
 594              	.LFE81:
 595              		.size	W5500_socket_rx_read_ptr, .-W5500_socket_rx_read_ptr
 596 001e 00BF     		.section	.text.W5500_socket_rx_update_read_ptr,"ax",%progbits
 597              		.align	2
 598              		.global	W5500_socket_rx_update_read_ptr
 599              		.thumb
 600              		.thumb_func
 601              		.type	W5500_socket_rx_update_read_ptr, %function
 602              	W5500_socket_rx_update_read_ptr:
 603              	.LFB82:
 229:socket.c      **** 
 230:socket.c      **** void W5500_socket_rx_update_read_ptr(struct skt_t *socket, uint16_t new_addr)
 231:socket.c      **** {
 604              		.loc 1 231 0
 605              		.cfi_startproc
 606              		@ args = 0, pretend = 0, frame = 0
 607              		@ frame_needed = 0, uses_anonymous_args = 0
 608              	.LVL74:
 609 0000 38B5     		push	{r3, r4, r5, lr}
 610              		.cfi_def_cfa_offset 16
 611              		.cfi_offset 3, -16
 612              		.cfi_offset 4, -12
 613              		.cfi_offset 5, -8
 614              		.cfi_offset 14, -4
 615 0002 0446     		mov	r4, r0
 616 0004 0D46     		mov	r5, r1
 232:socket.c      ****     W5500_spi_write_byte(socket->base_addr, SOCKET_REG_RX_READ_POINTER0, (new_addr & 0xFF00) >> 8);
 617              		.loc 1 232 0
ARM GAS  C:\Users\d3bug\AppData\Local\Temp\ccKfnB1Z.s 			page 16


 618 0006 0A0A     		lsrs	r2, r1, #8
 619 0008 2821     		movs	r1, #40
 620              	.LVL75:
 621 000a 007A     		ldrb	r0, [r0, #8]	@ zero_extendqisi2
 622              	.LVL76:
 623 000c FFF7FEFF 		bl	W5500_spi_write_byte
 624              	.LVL77:
 233:socket.c      ****     W5500_spi_write_byte(socket->base_addr, SOCKET_REG_RX_READ_POINTER1, new_addr & 0xFF);
 625              		.loc 1 233 0
 626 0010 EAB2     		uxtb	r2, r5
 627 0012 2921     		movs	r1, #41
 628 0014 207A     		ldrb	r0, [r4, #8]	@ zero_extendqisi2
 629 0016 FFF7FEFF 		bl	W5500_spi_write_byte
 630              	.LVL78:
 234:socket.c      ****     W5500_socket_cmd(socket, SOCKET_CMD_RECV);
 631              		.loc 1 234 0
 632 001a 4021     		movs	r1, #64
 633 001c 2046     		mov	r0, r4
 634 001e FFF7FEFF 		bl	W5500_socket_cmd
 635              	.LVL79:
 636 0022 38BD     		pop	{r3, r4, r5, pc}
 637              		.cfi_endproc
 638              	.LFE82:
 639              		.size	W5500_socket_rx_update_read_ptr, .-W5500_socket_rx_update_read_ptr
 640              		.section	.text.W5500_socket_rx_write_ptr,"ax",%progbits
 641              		.align	2
 642              		.global	W5500_socket_rx_write_ptr
 643              		.thumb
 644              		.thumb_func
 645              		.type	W5500_socket_rx_write_ptr, %function
 646              	W5500_socket_rx_write_ptr:
 647              	.LFB83:
 235:socket.c      **** }
 236:socket.c      **** 
 237:socket.c      **** uint16_t W5500_socket_rx_write_ptr(struct skt_t *socket)
 238:socket.c      **** {
 648              		.loc 1 238 0
 649              		.cfi_startproc
 650              		@ args = 0, pretend = 0, frame = 0
 651              		@ frame_needed = 0, uses_anonymous_args = 0
 652              	.LVL80:
 653 0000 38B5     		push	{r3, r4, r5, lr}
 654              		.cfi_def_cfa_offset 16
 655              		.cfi_offset 3, -16
 656              		.cfi_offset 4, -12
 657              		.cfi_offset 5, -8
 658              		.cfi_offset 14, -4
 659 0002 0546     		mov	r5, r0
 660              	.LVL81:
 239:socket.c      ****     uint16_t result = 0;
 240:socket.c      ****     uint8_t read_0 = 0;
 241:socket.c      ****     uint8_t read_1 = 0;
 242:socket.c      ****     
 243:socket.c      ****     read_0 = W5500_spi_read_byte(socket->base_addr, SOCKET_REG_RX_WRITE_POINTER0);
 661              		.loc 1 243 0
 662 0004 2A21     		movs	r1, #42
 663 0006 007A     		ldrb	r0, [r0, #8]	@ zero_extendqisi2
ARM GAS  C:\Users\d3bug\AppData\Local\Temp\ccKfnB1Z.s 			page 17


 664              	.LVL82:
 665 0008 FFF7FEFF 		bl	W5500_spi_read_byte
 666              	.LVL83:
 667 000c 0446     		mov	r4, r0
 668              	.LVL84:
 244:socket.c      ****     read_1 = W5500_spi_read_byte(socket->base_addr, SOCKET_REG_RX_WRITE_POINTER1);
 669              		.loc 1 244 0
 670 000e 2B21     		movs	r1, #43
 671 0010 287A     		ldrb	r0, [r5, #8]	@ zero_extendqisi2
 672 0012 FFF7FEFF 		bl	W5500_spi_read_byte
 673              	.LVL85:
 245:socket.c      ****     
 246:socket.c      ****     result = (read_0 << 8) | read_1;
 674              		.loc 1 246 0
 675 0016 40EA0420 		orr	r0, r0, r4, lsl #8
 676              	.LVL86:
 247:socket.c      ****     
 248:socket.c      ****     return result;
 249:socket.c      **** }
 677              		.loc 1 249 0
 678 001a 80B2     		uxth	r0, r0
 679 001c 38BD     		pop	{r3, r4, r5, pc}
 680              		.cfi_endproc
 681              	.LFE83:
 682              		.size	W5500_socket_rx_write_ptr, .-W5500_socket_rx_write_ptr
 683 001e 00BF     		.section	.text.W5500_socket_write,"ax",%progbits
 684              		.align	2
 685              		.global	W5500_socket_write
 686              		.thumb
 687              		.thumb_func
 688              		.type	W5500_socket_write, %function
 689              	W5500_socket_write:
 690              	.LFB84:
 250:socket.c      **** 
 251:socket.c      **** void W5500_socket_write(struct skt_t *socket, uint16_t addr, const uint8_t *data, const size_t data
 252:socket.c      **** {
 691              		.loc 1 252 0
 692              		.cfi_startproc
 693              		@ args = 0, pretend = 0, frame = 0
 694              		@ frame_needed = 0, uses_anonymous_args = 0
 695              	.LVL87:
 696 0000 08B5     		push	{r3, lr}
 697              		.cfi_def_cfa_offset 8
 698              		.cfi_offset 3, -8
 699              		.cfi_offset 14, -4
 253:socket.c      ****     W5500_spi_write(socket->tx_addr, addr, data, data_size);
 700              		.loc 1 253 0
 701 0002 407A     		ldrb	r0, [r0, #9]	@ zero_extendqisi2
 702              	.LVL88:
 703 0004 FFF7FEFF 		bl	W5500_spi_write
 704              	.LVL89:
 705 0008 08BD     		pop	{r3, pc}
 706              		.cfi_endproc
 707              	.LFE84:
 708              		.size	W5500_socket_write, .-W5500_socket_write
 709 000a 00BF     		.section	.text.W5500_socket_read,"ax",%progbits
 710              		.align	2
ARM GAS  C:\Users\d3bug\AppData\Local\Temp\ccKfnB1Z.s 			page 18


 711              		.global	W5500_socket_read
 712              		.thumb
 713              		.thumb_func
 714              		.type	W5500_socket_read, %function
 715              	W5500_socket_read:
 716              	.LFB85:
 254:socket.c      ****     
 255:socket.c      **** #if 0
 256:socket.c      ****     
 257:socket.c      ****     So we can have a function (socket_send?) that does the following:
 258:socket.c      ****     1. Get current the tx_write_ptr position
 259:socket.c      ****     2. write the data into the tx reg
 260:socket.c      ****     3. update the tx_write_ptr position
 261:socket.c      ****     4. send the SEND command
 262:socket.c      **** 
 263:socket.c      ****     tx_ptr = W5500_socket_tx_write_ptr(tcp_server);
 264:socket.c      ****     W5500_socket_write(tcp_server, tx_ptr, (uint8_t *) status_code, strlen(status_code));
 265:socket.c      ****     tx_ptr += strlen(status_code);
 266:socket.c      ****     W5500_socket_tx_update_write_ptr(tcp_server, tx_ptr);
 267:socket.c      ****     W5500_socket_cmd_send(tcp_server);
 268:socket.c      ****     
 269:socket.c      **** /**
 270:socket.c      ****  * \brief Generic transmission of a data block using TCP
 271:socket.c      ****  * \param socket the socket that will be used to send the data
 272:socket.c      ****  * \param *buffer the array of data to be sent using TCP
 273:socket.c      ****  * \param len the length of data to send from the buffer
 274:socket.c      ****  * \param flags control flags for controlling options for transmission
 275:socket.c      ****  *
 276:socket.c      ****  * ETH_TcpSend transmits a block of generic data using TCP through a socket.
 277:socket.c      ****  * the connection must have been previously established in order for the
 278:socket.c      ****  * the function to operate properly, otherwise, no data will be transmitted.
 279:socket.c      ****  */
 280:socket.c      **** uint16_t ETH_TcpSend( uint8_t socket, uint8_t* buffer, uint16_t len, uint8_t flags)
 281:socket.c      **** {
 282:socket.c      **** 	uint16_t tx_length = 0;
 283:socket.c      ****     uint16_t max_packet = 0;
 284:socket.c      ****     uint16_t ptr = 0;
 285:socket.c      **** 	uint8_t buf_size = 0;
 286:socket.c      ****     uint8_t result = 0;
 287:socket.c      **** 	
 288:socket.c      **** 	if ( ETH_SOCKET_BAD( socket ) ) {
 289:socket.c      ****         return 0;
 290:socket.c      ****     }
 291:socket.c      **** 	
 292:socket.c      **** 	tx_length = ETH_TxBufferFree( socket );
 293:socket.c      ****     
 294:socket.c      **** 	if ( (tx_length < len ) && ((flags&ETH_TXRX_FLG_WAIT) != 0) ) {
 295:socket.c      ****         
 296:socket.c      **** 		// there is not enough room in the buffer, but the caller requested
 297:socket.c      **** 		// this to block until there was free space. So, check the memory
 298:socket.c      **** 		// size to determine if the tx buffer is big enough to handle the
 299:socket.c      **** 		// data block without fragmentation.
 300:socket.c      **** 		ETH_Send(ETH_SREG_TXBUF_SIZE, ETH_SOCKET_BASE(socket),0,&buf_size,1);
 301:socket.c      **** 		max_packet = (buf_size == 0)? 0 : (0x400 << (buf_size-1));
 302:socket.c      ****         
 303:socket.c      **** 		// now that we know the max buffer size, if it is smaller than the
 304:socket.c      **** 		// requested transmit lenght, we have an error, so return 0
ARM GAS  C:\Users\d3bug\AppData\Local\Temp\ccKfnB1Z.s 			page 19


 305:socket.c      **** 		if (max_packet < len ) return 0;
 306:socket.c      **** 		// otherwise, we will wait for the room in the buffer
 307:socket.c      **** 		do {
 308:socket.c      **** 			tx_length = ETH_TxBufferFree( socket );
 309:socket.c      **** 		} while ( tx_length < len );
 310:socket.c      **** 	} else {
 311:socket.c      **** 		tx_length = len;
 312:socket.c      **** 	}
 313:socket.c      ****     
 314:socket.c      **** 	// The length of the Tx data block has now been determined, and can be
 315:socket.c      **** 	// copied in to the W5500 buffer memory. First read the pointer, then
 316:socket.c      **** 	// write data from the pointer forward, lastly update the pointer and issue
 317:socket.c      **** 	// the SEND command.
 318:socket.c      **** 	ETH_Send( ETH_SREG_TX_WR, ETH_SOCKET_BASE(socket),0,(uint8*)&ptr,2);
 319:socket.c      **** 	ptr = CYSWAP_ENDIAN16( ptr );
 320:socket.c      **** 	ETH_Send( ptr, ETH_TX_BASE(socket),1,buffer,tx_length);
 321:socket.c      **** 	ptr += tx_length;
 322:socket.c      **** 	ptr = CYSWAP_ENDIAN16( ptr );
 323:socket.c      **** 	ETH_Send(ETH_SREG_TX_WR, ETH_SOCKET_BASE(socket),1,(uint8*)&ptr,2);
 324:socket.c      **** 	
 325:socket.c      **** 	ETH_ExecuteSocketCommand( socket, ETH_CR_SEND );
 326:socket.c      **** 	
 327:socket.c      **** 	if ( 0 != ( flags & ETH_TXRX_FLG_WAIT ) ) {
 328:socket.c      **** 		// block until send is complete
 329:socket.c      **** 		do {
 330:socket.c      **** 			CyDelay(1);
 331:socket.c      **** 			result = ETH_SocketSendComplete( socket );
 332:socket.c      **** 		} while ( ( CYRET_FINISHED != result ) && ( CYRET_CANCELED != result ) );
 333:socket.c      **** 	}
 334:socket.c      **** 	
 335:socket.c      **** 	return tx_length;
 336:socket.c      **** }
 337:socket.c      **** #endif
 338:socket.c      **** }
 339:socket.c      **** 
 340:socket.c      **** /* Keep addr as a member of the skt_t struct */
 341:socket.c      **** /* Read received Data from Sn_RX_BUF */
 342:socket.c      **** void W5500_socket_read(struct skt_t *socket, uint16_t addr, uint8_t *data, const size_t data_size)
 343:socket.c      **** {
 717              		.loc 1 343 0
 718              		.cfi_startproc
 719              		@ args = 0, pretend = 0, frame = 0
 720              		@ frame_needed = 0, uses_anonymous_args = 0
 721              	.LVL90:
 722 0000 08B5     		push	{r3, lr}
 723              		.cfi_def_cfa_offset 8
 724              		.cfi_offset 3, -8
 725              		.cfi_offset 14, -4
 344:socket.c      ****     W5500_spi_read(socket->rx_addr, addr, data, data_size);
 726              		.loc 1 344 0
 727 0002 807A     		ldrb	r0, [r0, #10]	@ zero_extendqisi2
 728              	.LVL91:
 729 0004 FFF7FEFF 		bl	W5500_spi_read
 730              	.LVL92:
 731 0008 08BD     		pop	{r3, pc}
 732              		.cfi_endproc
 733              	.LFE85:
ARM GAS  C:\Users\d3bug\AppData\Local\Temp\ccKfnB1Z.s 			page 20


 734              		.size	W5500_socket_read, .-W5500_socket_read
 735 000a 00BF     		.section	.text.W5500_socket_get_remote_mac,"ax",%progbits
 736              		.align	2
 737              		.global	W5500_socket_get_remote_mac
 738              		.thumb
 739              		.thumb_func
 740              		.type	W5500_socket_get_remote_mac, %function
 741              	W5500_socket_get_remote_mac:
 742              	.LFB86:
 345:socket.c      ****     
 346:socket.c      **** #if 0
 347:socket.c      ****     
 348:socket.c      ****     
 349:socket.c      ****     
 350:socket.c      **** uint16_t ETH_TcpReceive(uint8_t socket, uint8_t* buffer, uint16_t len, uint8_t flags)
 351:socket.c      **** {
 352:socket.c      **** 	uint16_t rx_size = 0;
 353:socket.c      ****     uint16_t ptr = 0;
 354:socket.c      ****     uint16_t bytes = 0;
 355:socket.c      **** 	
 356:socket.c      **** 	// when there is a bad socket, just return 0 bys no matter what.
 357:socket.c      **** 	if ( ETH_SOCKET_BAD( socket ) ) {
 358:socket.c      ****         return 0;
 359:socket.c      ****     }
 360:socket.c      **** 
 361:socket.c      **** 	// Otherwise, read the number of bytes waiting to be read.  When the byte
 362:socket.c      **** 	// count is less than the requested bytes, wait for them to be available
 363:socket.c      **** 	// when the wait flag is set, otherwise, just read the waiting data once.
 364:socket.c      **** 	do {
 365:socket.c      **** 		rx_size = ETH_RxDataReady( socket );
 366:socket.c      **** 	} while ( ( rx_size < len ) && ( flags & ETH_TXRX_FLG_WAIT ) );
 367:socket.c      **** 	
 368:socket.c      **** 	// When data is available, begin processing the data
 369:socket.c      **** 	if ( 0 < rx_size ) { 
 370:socket.c      **** 		// calculate the number of bytes to receive using the available data
 371:socket.c      **** 		// and the requested length of data.
 372:socket.c      **** 		bytes = ( rx_size > len ) ? len : rx_size;
 373:socket.c      **** 		// Read the starting memory pointer address, and endian correct
 374:socket.c      **** 		ETH_Send( ETH_SREG_RX_RD, ETH_SOCKET_BASE(socket),0,(uint8*)&ptr,2);
 375:socket.c      **** 		ptr = CYSWAP_ENDIAN16( ptr );
 376:socket.c      **** 		// Retrieve the data bytes from the W5500 buffer
 377:socket.c      **** 		ETH_Send( ptr, ETH_RX_BASE(socket),0,buffer,bytes);
 378:socket.c      ****  
 379:socket.c      **** 		// Calculate the new buffer pointer location, endian correct, and
 380:socket.c      **** 		// update the pointer register within the W5500 socket registers
 381:socket.c      **** 		ptr += bytes;
 382:socket.c      **** 		ptr = CYSWAP_ENDIAN16( ptr );
 383:socket.c      **** 		ETH_Send(ETH_SREG_RX_RD, ETH_SOCKET_BASE(socket),1,(uint8*)&ptr,2);
 384:socket.c      **** 		// when all of the available data was read from the message, execute the receive command
 385:socket.c      **** 		ETH_ExecuteSocketCommand( socket, ETH_CR_RECV );
 386:socket.c      **** 	}
 387:socket.c      ****     
 388:socket.c      **** 	return bytes;
 389:socket.c      **** }
 390:socket.c      **** 
 391:socket.c      **** /**
 392:socket.c      ****  * @brief TCP Get char.
ARM GAS  C:\Users\d3bug\AppData\Local\Temp\ccKfnB1Z.s 			page 21


 393:socket.c      ****  *
 394:socket.c      ****  */
 395:socket.c      **** char ETH_TcpGetChar( uint8_t socket )
 396:socket.c      **** {
 397:socket.c      **** 	char ch = 0;
 398:socket.c      **** 	uint16_t len = 0;
 399:socket.c      **** 	
 400:socket.c      **** 	do {
 401:socket.c      **** 		len = ETH_TcpReceive(socket, (uint8*)&ch, 1, 0);
 402:socket.c      **** 	} while ( len < 1 );
 403:socket.c      ****     
 404:socket.c      **** 	return ch;
 405:socket.c      **** }
 406:socket.c      **** 
 407:socket.c      **** /**
 408:socket.c      ****  * @brief TCP Get line.
 409:socket.c      ****  *
 410:socket.c      ****  */
 411:socket.c      **** int ETH_TcpGetLine( uint8_t socket, char *buffer )
 412:socket.c      **** {
 413:socket.c      **** 	char ch = 0;
 414:socket.c      **** 	int idx = 0;
 415:socket.c      **** 	
 416:socket.c      **** 	do {
 417:socket.c      **** 		ch = ETH_TcpGetChar( socket );
 418:socket.c      **** 		if ( (ch != '\r') && (ch!='\n') ) {
 419:socket.c      **** 			if ( (ch == '\b')||(ch==127) ) {
 420:socket.c      **** 				buffer[idx] = 0;
 421:socket.c      **** 				idx = (idx == 0)?0:idx-1;
 422:socket.c      **** 			} else {
 423:socket.c      **** 				buffer[idx++] = ch;
 424:socket.c      **** 				buffer[idx] = 0;
 425:socket.c      **** 			}
 426:socket.c      **** 		}
 427:socket.c      **** 	} while ( (ch!='\r') && (ch!='\n'));
 428:socket.c      ****     
 429:socket.c      **** 	buffer[idx] = 0;
 430:socket.c      **** 	
 431:socket.c      **** 	return idx;
 432:socket.c      **** }
 433:socket.c      ****     
 434:socket.c      ****     /======
 435:socket.c      ****     
 436:socket.c      ****     uint16_t new_rx_addr = 0;
 437:socket.c      ****     uint16_t rcv_size = 0;
 438:socket.c      ****     
 439:socket.c      ****     uint8_t data_ptr[2] = {0};
 440:socket.c      ****     uint16_t data_addr = 0;
 441:socket.c      ****     
 442:socket.c      ****     LED_Write(~LED_Read());
 443:socket.c      ****         
 444:socket.c      ****     rcv_size = W5500_socket_get_received_data_size(tcp_server);
 445:socket.c      ****     
 446:socket.c      ****     if (0 < rcv_size) {
 447:socket.c      ****         
 448:socket.c      ****         /* Read Sn_RX_RD (Socket n RX Read Pointer) to get RX Data Start Address */
 449:socket.c      ****         // TODO: Add in the socket functions
ARM GAS  C:\Users\d3bug\AppData\Local\Temp\ccKfnB1Z.s 			page 22


 450:socket.c      ****         data_ptr[0] = W5500_spi_read_byte(1, SOCKET_REG_RX_READ_POINTER0);
 451:socket.c      ****         data_ptr[1] = W5500_spi_read_byte(1, SOCKET_REG_RX_READ_POINTER1);
 452:socket.c      ****         data_addr = (data_ptr[0] << 8 | data_ptr[1]);
 453:socket.c      **** 
 454:socket.c      ****         /* Read received Data from Sn_RX_BUF */
 455:socket.c      ****         // TODO: Add in the socket functions
 456:socket.c      ****         W5500_spi_read(0x00003, data_addr, data, rcv_size);
 457:socket.c      ****             
 458:socket.c      ****         /* Despues de leer los datos tenemos que actualizar Sn_RX_RD con el
 459:socket.c      ****         * tamao de los datos que leimos. Mandar el comando RECV para notificar
 460:socket.c      ****         * al W5500. */
 461:socket.c      ****         // TODO: Add in the socket functions
 462:socket.c      ****         new_rx_addr = data_addr + rcv_size;
 463:socket.c      ****         data_ptr[0] = (new_rx_addr & 0xFF00) >> 8;
 464:socket.c      ****         data_ptr[1] = new_rx_addr & 0xFF;
 465:socket.c      ****         
 466:socket.c      ****         /* update receive address */
 467:socket.c      ****         W5500_spi_write_byte(1, SOCKET_REG_RX_READ_POINTER0, data_ptr[0]);
 468:socket.c      ****         W5500_spi_write_byte(1, SOCKET_REG_RX_READ_POINTER1, data_ptr[1]);
 469:socket.c      ****         
 470:socket.c      ****         W5500_socket_cmd_recv(tcp_server);
 471:socket.c      ****         
 472:socket.c      ****         data[rcv_size] = '\0';
 473:socket.c      ****         snprintf(data_str, sizeof(data_str), "%s", data);
 474:socket.c      ****     }
 475:socket.c      **** #endif
 476:socket.c      **** }
 477:socket.c      **** 
 478:socket.c      **** /* maybe remove remote ip and mac from the struct, also remote ip, or just update them
 479:socket.c      ****  when detecting a remote connection? */
 480:socket.c      **** void W5500_socket_get_remote_mac(struct skt_t *socket, uint8_t *mac, size_t mac_size)
 481:socket.c      **** {
 743              		.loc 1 481 0
 744              		.cfi_startproc
 745              		@ args = 0, pretend = 0, frame = 0
 746              		@ frame_needed = 0, uses_anonymous_args = 0
 747              	.LVL93:
 748 0000 08B5     		push	{r3, lr}
 749              		.cfi_def_cfa_offset 8
 750              		.cfi_offset 3, -8
 751              		.cfi_offset 14, -4
 482:socket.c      ****     W5500_spi_read(socket->base_addr, SOCKET_REG_DESTINATION_HW_ADDR0, mac, mac_size);
 752              		.loc 1 482 0
 753 0002 1346     		mov	r3, r2
 754 0004 0A46     		mov	r2, r1
 755              	.LVL94:
 756 0006 0621     		movs	r1, #6
 757              	.LVL95:
 758 0008 007A     		ldrb	r0, [r0, #8]	@ zero_extendqisi2
 759              	.LVL96:
 760 000a FFF7FEFF 		bl	W5500_spi_read
 761              	.LVL97:
 762 000e 08BD     		pop	{r3, pc}
 763              		.cfi_endproc
 764              	.LFE86:
 765              		.size	W5500_socket_get_remote_mac, .-W5500_socket_get_remote_mac
 766              		.section	.text.W5500_socket_get_remote_ip,"ax",%progbits
ARM GAS  C:\Users\d3bug\AppData\Local\Temp\ccKfnB1Z.s 			page 23


 767              		.align	2
 768              		.global	W5500_socket_get_remote_ip
 769              		.thumb
 770              		.thumb_func
 771              		.type	W5500_socket_get_remote_ip, %function
 772              	W5500_socket_get_remote_ip:
 773              	.LFB87:
 483:socket.c      **** }
 484:socket.c      **** 
 485:socket.c      **** void W5500_socket_get_remote_ip(struct skt_t *socket, uint8_t *ip, size_t ip_size)
 486:socket.c      **** {
 774              		.loc 1 486 0
 775              		.cfi_startproc
 776              		@ args = 0, pretend = 0, frame = 0
 777              		@ frame_needed = 0, uses_anonymous_args = 0
 778              	.LVL98:
 779 0000 08B5     		push	{r3, lr}
 780              		.cfi_def_cfa_offset 8
 781              		.cfi_offset 3, -8
 782              		.cfi_offset 14, -4
 487:socket.c      ****     W5500_spi_read(socket->base_addr, SOCKET_REG_DESTINATION_IP_ADDR0, ip, ip_size);
 783              		.loc 1 487 0
 784 0002 1346     		mov	r3, r2
 785 0004 0A46     		mov	r2, r1
 786              	.LVL99:
 787 0006 0C21     		movs	r1, #12
 788              	.LVL100:
 789 0008 007A     		ldrb	r0, [r0, #8]	@ zero_extendqisi2
 790              	.LVL101:
 791 000a FFF7FEFF 		bl	W5500_spi_read
 792              	.LVL102:
 793 000e 08BD     		pop	{r3, pc}
 794              		.cfi_endproc
 795              	.LFE87:
 796              		.size	W5500_socket_get_remote_ip, .-W5500_socket_get_remote_ip
 797              		.section	.text.W5500_socket_get_remote_port,"ax",%progbits
 798              		.align	2
 799              		.global	W5500_socket_get_remote_port
 800              		.thumb
 801              		.thumb_func
 802              		.type	W5500_socket_get_remote_port, %function
 803              	W5500_socket_get_remote_port:
 804              	.LFB88:
 488:socket.c      **** }
 489:socket.c      **** 
 490:socket.c      **** uint16_t W5500_socket_get_remote_port(struct skt_t *socket)
 491:socket.c      **** {
 805              		.loc 1 491 0
 806              		.cfi_startproc
 807              		@ args = 0, pretend = 0, frame = 8
 808              		@ frame_needed = 0, uses_anonymous_args = 0
 809              	.LVL103:
 810 0000 00B5     		push	{lr}
 811              		.cfi_def_cfa_offset 4
 812              		.cfi_offset 14, -4
 813 0002 83B0     		sub	sp, sp, #12
 814              		.cfi_def_cfa_offset 16
ARM GAS  C:\Users\d3bug\AppData\Local\Temp\ccKfnB1Z.s 			page 24


 492:socket.c      ****     uint8_t port[2] = {0};
 815              		.loc 1 492 0
 816 0004 02AA     		add	r2, sp, #8
 817 0006 0023     		movs	r3, #0
 818 0008 22F8043D 		strh	r3, [r2, #-4]!	@ movhi
 493:socket.c      ****     
 494:socket.c      ****     W5500_spi_read(socket->base_addr, SOCKET_REG_DESTINATION_PORT0, port, sizeof(port));
 819              		.loc 1 494 0
 820 000c 0223     		movs	r3, #2
 821 000e 1021     		movs	r1, #16
 822 0010 007A     		ldrb	r0, [r0, #8]	@ zero_extendqisi2
 823              	.LVL104:
 824 0012 FFF7FEFF 		bl	W5500_spi_read
 825              	.LVL105:
 495:socket.c      ****     
 496:socket.c      ****     return (port[0] << 8) | (port[1]);
 826              		.loc 1 496 0
 827 0016 9DF80400 		ldrb	r0, [sp, #4]	@ zero_extendqisi2
 828 001a 9DF80530 		ldrb	r3, [sp, #5]	@ zero_extendqisi2
 497:socket.c      **** }
 829              		.loc 1 497 0
 830 001e 43EA0020 		orr	r0, r3, r0, lsl #8
 831 0022 03B0     		add	sp, sp, #12
 832              		.cfi_def_cfa_offset 4
 833              		@ sp needed
 834 0024 5DF804FB 		ldr	pc, [sp], #4
 835              		.cfi_endproc
 836              	.LFE88:
 837              		.size	W5500_socket_get_remote_port, .-W5500_socket_get_remote_port
 838              		.section	.text.W5500_socket_set_imr,"ax",%progbits
 839              		.align	2
 840              		.global	W5500_socket_set_imr
 841              		.thumb
 842              		.thumb_func
 843              		.type	W5500_socket_set_imr, %function
 844              	W5500_socket_set_imr:
 845              	.LFB89:
 498:socket.c      **** 
 499:socket.c      **** void W5500_socket_set_imr(struct skt_t *socket, uint8_t flags)
 500:socket.c      **** {
 846              		.loc 1 500 0
 847              		.cfi_startproc
 848              		@ args = 0, pretend = 0, frame = 0
 849              		@ frame_needed = 0, uses_anonymous_args = 0
 850              	.LVL106:
 851 0000 08B5     		push	{r3, lr}
 852              		.cfi_def_cfa_offset 8
 853              		.cfi_offset 3, -8
 854              		.cfi_offset 14, -4
 855 0002 0A46     		mov	r2, r1
 501:socket.c      ****     socket->imr = flags;
 856              		.loc 1 501 0
 857 0004 C172     		strb	r1, [r0, #11]
 502:socket.c      ****     W5500_spi_write_byte(socket->base_addr, SOCKET_REG_INTERRUPT_MASK, flags);
 858              		.loc 1 502 0
 859 0006 2C21     		movs	r1, #44
 860              	.LVL107:
ARM GAS  C:\Users\d3bug\AppData\Local\Temp\ccKfnB1Z.s 			page 25


 861 0008 007A     		ldrb	r0, [r0, #8]	@ zero_extendqisi2
 862              	.LVL108:
 863 000a FFF7FEFF 		bl	W5500_spi_write_byte
 864              	.LVL109:
 865 000e 08BD     		pop	{r3, pc}
 866              		.cfi_endproc
 867              	.LFE89:
 868              		.size	W5500_socket_set_imr, .-W5500_socket_set_imr
 869              		.section	.text.W5500_socket_get_imr,"ax",%progbits
 870              		.align	2
 871              		.global	W5500_socket_get_imr
 872              		.thumb
 873              		.thumb_func
 874              		.type	W5500_socket_get_imr, %function
 875              	W5500_socket_get_imr:
 876              	.LFB90:
 503:socket.c      **** }
 504:socket.c      **** 
 505:socket.c      **** uint8_t W5500_socket_get_imr(struct skt_t *socket)
 506:socket.c      **** {
 877              		.loc 1 506 0
 878              		.cfi_startproc
 879              		@ args = 0, pretend = 0, frame = 0
 880              		@ frame_needed = 0, uses_anonymous_args = 0
 881              		@ link register save eliminated.
 882              	.LVL110:
 507:socket.c      ****     //return W5500_spi_read_byte(socket->base_addr, SOCKET_REG_INTERRUPT_MASK);
 508:socket.c      ****     return socket->imr;
 509:socket.c      **** }
 883              		.loc 1 509 0
 884 0000 C07A     		ldrb	r0, [r0, #11]	@ zero_extendqisi2
 885              	.LVL111:
 886 0002 7047     		bx	lr
 887              		.cfi_endproc
 888              	.LFE90:
 889              		.size	W5500_socket_get_imr, .-W5500_socket_get_imr
 890              		.section	.text.W5500_socket_clear_interrupt,"ax",%progbits
 891              		.align	2
 892              		.global	W5500_socket_clear_interrupt
 893              		.thumb
 894              		.thumb_func
 895              		.type	W5500_socket_clear_interrupt, %function
 896              	W5500_socket_clear_interrupt:
 897              	.LFB91:
 510:socket.c      **** 
 511:socket.c      **** void W5500_socket_clear_interrupt(struct skt_t *socket, uint8_t flags)
 512:socket.c      **** {
 898              		.loc 1 512 0
 899              		.cfi_startproc
 900              		@ args = 0, pretend = 0, frame = 0
 901              		@ frame_needed = 0, uses_anonymous_args = 0
 902              	.LVL112:
 903 0000 08B5     		push	{r3, lr}
 904              		.cfi_def_cfa_offset 8
 905              		.cfi_offset 3, -8
 906              		.cfi_offset 14, -4
 513:socket.c      ****     W5500_spi_write_byte(socket->base_addr, SOCKET_REG_INTERRUPT, flags);
ARM GAS  C:\Users\d3bug\AppData\Local\Temp\ccKfnB1Z.s 			page 26


 907              		.loc 1 513 0
 908 0002 0A46     		mov	r2, r1
 909 0004 0221     		movs	r1, #2
 910              	.LVL113:
 911 0006 007A     		ldrb	r0, [r0, #8]	@ zero_extendqisi2
 912              	.LVL114:
 913 0008 FFF7FEFF 		bl	W5500_spi_write_byte
 914              	.LVL115:
 915 000c 08BD     		pop	{r3, pc}
 916              		.cfi_endproc
 917              	.LFE91:
 918              		.size	W5500_socket_clear_interrupt, .-W5500_socket_clear_interrupt
 919 000e 00BF     		.section	.text.W5500_socket_get_interrupt,"ax",%progbits
 920              		.align	2
 921              		.global	W5500_socket_get_interrupt
 922              		.thumb
 923              		.thumb_func
 924              		.type	W5500_socket_get_interrupt, %function
 925              	W5500_socket_get_interrupt:
 926              	.LFB92:
 514:socket.c      **** }
 515:socket.c      **** 
 516:socket.c      **** /* imr & interrupt_status_register to get only the enabled interrupts */
 517:socket.c      **** uint8_t W5500_socket_get_interrupt(struct skt_t *socket)
 518:socket.c      **** {
 927              		.loc 1 518 0
 928              		.cfi_startproc
 929              		@ args = 0, pretend = 0, frame = 0
 930              		@ frame_needed = 0, uses_anonymous_args = 0
 931              	.LVL116:
 932 0000 08B5     		push	{r3, lr}
 933              		.cfi_def_cfa_offset 8
 934              		.cfi_offset 3, -8
 935              		.cfi_offset 14, -4
 519:socket.c      ****     return W5500_spi_read_byte(socket->base_addr, SOCKET_REG_INTERRUPT);
 936              		.loc 1 519 0
 937 0002 0221     		movs	r1, #2
 938 0004 007A     		ldrb	r0, [r0, #8]	@ zero_extendqisi2
 939              	.LVL117:
 940 0006 FFF7FEFF 		bl	W5500_spi_read_byte
 941              	.LVL118:
 520:socket.c      **** }
 942              		.loc 1 520 0
 943 000a 08BD     		pop	{r3, pc}
 944              		.cfi_endproc
 945              	.LFE92:
 946              		.size	W5500_socket_get_interrupt, .-W5500_socket_get_interrupt
 947              		.global	_skt
 948              		.comm	skt_t,12,4
 949              		.data
 950              		.align	2
 951              		.set	.LANCHOR0,. + 0
 952              		.type	_skt, %object
 953              		.size	_skt, 96
 954              	_skt:
 955 0000 00       		.byte	0
 956 0001 00       		.byte	0
ARM GAS  C:\Users\d3bug\AppData\Local\Temp\ccKfnB1Z.s 			page 27


 957 0002 00       		.byte	0
 958 0003 02       		.byte	2
 959 0004 02       		.byte	2
 960 0005 00       		.space	1
 961 0006 0000     		.short	0
 962 0008 01       		.byte	1
 963 0009 02       		.byte	2
 964 000a 03       		.byte	3
 965 000b 00       		.byte	0
 966 000c 01       		.byte	1
 967 000d 00       		.byte	0
 968 000e 00       		.byte	0
 969 000f 02       		.byte	2
 970 0010 02       		.byte	2
 971 0011 00       		.space	1
 972 0012 0000     		.short	0
 973 0014 05       		.byte	5
 974 0015 06       		.byte	6
 975 0016 07       		.byte	7
 976 0017 00       		.byte	0
 977 0018 02       		.byte	2
 978 0019 00       		.byte	0
 979 001a 00       		.byte	0
 980 001b 02       		.byte	2
 981 001c 02       		.byte	2
 982 001d 00       		.space	1
 983 001e 0000     		.short	0
 984 0020 09       		.byte	9
 985 0021 0A       		.byte	10
 986 0022 0B       		.byte	11
 987 0023 00       		.byte	0
 988 0024 03       		.byte	3
 989 0025 00       		.byte	0
 990 0026 00       		.byte	0
 991 0027 02       		.byte	2
 992 0028 02       		.byte	2
 993 0029 00       		.space	1
 994 002a 0000     		.short	0
 995 002c 0D       		.byte	13
 996 002d 0E       		.byte	14
 997 002e 0F       		.byte	15
 998 002f 00       		.byte	0
 999 0030 04       		.byte	4
 1000 0031 00       		.byte	0
 1001 0032 00       		.byte	0
 1002 0033 02       		.byte	2
 1003 0034 02       		.byte	2
 1004 0035 00       		.space	1
 1005 0036 0000     		.short	0
 1006 0038 11       		.byte	17
 1007 0039 12       		.byte	18
 1008 003a 13       		.byte	19
 1009 003b 00       		.byte	0
 1010 003c 05       		.byte	5
 1011 003d 00       		.byte	0
 1012 003e 00       		.byte	0
 1013 003f 02       		.byte	2
ARM GAS  C:\Users\d3bug\AppData\Local\Temp\ccKfnB1Z.s 			page 28


 1014 0040 02       		.byte	2
 1015 0041 00       		.space	1
 1016 0042 0000     		.short	0
 1017 0044 15       		.byte	21
 1018 0045 16       		.byte	22
 1019 0046 17       		.byte	23
 1020 0047 00       		.byte	0
 1021 0048 06       		.byte	6
 1022 0049 00       		.byte	0
 1023 004a 00       		.byte	0
 1024 004b 02       		.byte	2
 1025 004c 02       		.byte	2
 1026 004d 00       		.space	1
 1027 004e 0000     		.short	0
 1028 0050 19       		.byte	25
 1029 0051 1A       		.byte	26
 1030 0052 1B       		.byte	27
 1031 0053 00       		.byte	0
 1032 0054 07       		.byte	7
 1033 0055 00       		.byte	0
 1034 0056 00       		.byte	0
 1035 0057 02       		.byte	2
 1036 0058 02       		.byte	2
 1037 0059 00       		.space	1
 1038 005a 0000     		.short	0
 1039 005c 1D       		.byte	29
 1040 005d 1E       		.byte	30
 1041 005e 1F       		.byte	31
 1042 005f 00       		.byte	0
 1043              		.text
 1044              	.Letext0:
 1045              		.file 2 "c:\\program files (x86)\\cypress\\psoc creator\\4.2\\psoc creator\\import\\gnu\\arm\\5.4.
 1046              		.file 3 "c:\\program files (x86)\\cypress\\psoc creator\\4.2\\psoc creator\\import\\gnu\\arm\\5.4.
 1047              		.file 4 "c:\\program files (x86)\\cypress\\psoc creator\\4.2\\psoc creator\\import\\gnu\\arm\\5.4.
 1048              		.file 5 "common.h"
 1049              		.file 6 "Generated_Source\\PSoC5/core_cm3.h"
 1050              		.file 7 "hal_spi.h"