ARM GAS  C:\Users\d3bug\AppData\Local\Temp\ccIcayek.s 			page 1


   1              		.syntax unified
   2              		.cpu cortex-m3
   3              		.fpu softvfp
   4              		.eabi_attribute 20, 1
   5              		.eabi_attribute 21, 1
   6              		.eabi_attribute 23, 3
   7              		.eabi_attribute 24, 1
   8              		.eabi_attribute 25, 1
   9              		.eabi_attribute 26, 1
  10              		.eabi_attribute 30, 1
  11              		.eabi_attribute 34, 1
  12              		.eabi_attribute 18, 4
  13              		.thumb
  14              		.syntax unified
  15              		.file	"tcp.c"
  16              		.text
  17              	.Ltext0:
  18              		.cfi_sections	.debug_frame
  19              		.section	.text.wiz_tcp_init_server,"ax",%progbits
  20              		.align	2
  21              		.global	wiz_tcp_init_server
  22              		.thumb
  23              		.thumb_func
  24              		.type	wiz_tcp_init_server, %function
  25              	wiz_tcp_init_server:
  26              	.LFB0:
  27              		.file 1 "tcp.c"
   1:tcp.c         **** #include "tcp.h"
   2:tcp.c         **** #include "socket.h"
   3:tcp.c         **** 
   4:tcp.c         **** struct skt_t *wiz_tcp_init_server(socket_id socket, uint16_t port)
   5:tcp.c         **** {
  28              		.loc 1 5 0
  29              		.cfi_startproc
  30              		@ args = 0, pretend = 0, frame = 0
  31              		@ frame_needed = 0, uses_anonymous_args = 0
  32              	.LVL0:
  33 0000 38B5     		push	{r3, r4, r5, lr}
  34              		.cfi_def_cfa_offset 16
  35              		.cfi_offset 3, -16
  36              		.cfi_offset 4, -12
  37              		.cfi_offset 5, -8
  38              		.cfi_offset 14, -4
  39 0002 0D46     		mov	r5, r1
  40              	.LVL1:
   6:tcp.c         ****     struct skt_t *tcp_server = NULL;
   7:tcp.c         ****     
   8:tcp.c         ****     tcp_server = W5500_socket_init(socket, SOCKET_PROTOCOL_TCP,
  41              		.loc 1 8 0
  42 0004 1023     		movs	r3, #16
  43 0006 1A46     		mov	r2, r3
  44 0008 0121     		movs	r1, #1
  45              	.LVL2:
  46 000a FFF7FEFF 		bl	W5500_socket_init
  47              	.LVL3:
  48 000e 0446     		mov	r4, r0
  49              	.LVL4:
ARM GAS  C:\Users\d3bug\AppData\Local\Temp\ccIcayek.s 			page 2


   9:tcp.c         ****                                    SOCKET_MEM_16KB, SOCKET_MEM_16KB);
  10:tcp.c         ****     W5500_socket_set_port(tcp_server, port);
  50              		.loc 1 10 0
  51 0010 2946     		mov	r1, r5
  52 0012 FFF7FEFF 		bl	W5500_socket_set_port
  53              	.LVL5:
  11:tcp.c         ****     W5500_socket_cmd(tcp_server, SOCKET_CMD_OPEN);
  54              		.loc 1 11 0
  55 0016 0121     		movs	r1, #1
  56 0018 2046     		mov	r0, r4
  57 001a FFF7FEFF 		bl	W5500_socket_cmd
  58              	.LVL6:
  12:tcp.c         ****     
  13:tcp.c         ****     return tcp_server;
  14:tcp.c         **** }
  59              		.loc 1 14 0
  60 001e 2046     		mov	r0, r4
  61 0020 38BD     		pop	{r3, r4, r5, pc}
  62              		.cfi_endproc
  63              	.LFE0:
  64              		.size	wiz_tcp_init_server, .-wiz_tcp_init_server
  65 0022 00BF     		.text
  66              	.Letext0:
  67              		.file 2 "c:\\program files (x86)\\cypress\\psoc creator\\4.2\\psoc creator\\import\\gnu\\arm\\5.4.
  68              		.file 3 "c:\\program files (x86)\\cypress\\psoc creator\\4.2\\psoc creator\\import\\gnu\\arm\\5.4.
  69              		.file 4 "common.h"
  70              		.file 5 "socket.h"