ARM GAS  C:\Users\d3bug\AppData\Local\Temp\ccKWUL56.s 			page 1


   1              		.syntax unified
   2              		.cpu cortex-m3
   3              		.fpu softvfp
   4              		.eabi_attribute 20, 1
   5              		.eabi_attribute 21, 1
   6              		.eabi_attribute 23, 3
   7              		.eabi_attribute 24, 1
   8              		.eabi_attribute 25, 1
   9              		.eabi_attribute 26, 1
  10              		.eabi_attribute 30, 1
  11              		.eabi_attribute 34, 1
  12              		.eabi_attribute 18, 4
  13              		.thumb
  14              		.syntax unified
  15              		.file	"udp.c"
  16              		.text
  17              	.Ltext0:
  18              		.cfi_sections	.debug_frame
  19              		.section	.text.w5500_udp_open,"ax",%progbits
  20              		.align	2
  21              		.global	w5500_udp_open
  22              		.thumb
  23              		.thumb_func
  24              		.type	w5500_udp_open, %function
  25              	w5500_udp_open:
  26              	.LFB0:
  27              		.file 1 "udp.c"
   1:udp.c         **** #include "udp.h"
   2:udp.c         **** 
   3:udp.c         **** uint8_t w5500_udp_open(uint16_t port)
   4:udp.c         **** {
  28              		.loc 1 4 0
  29              		.cfi_startproc
  30              		@ args = 0, pretend = 0, frame = 0
  31              		@ frame_needed = 0, uses_anonymous_args = 0
  32              		@ link register save eliminated.
  33              	.LVL0:
  34              	.LVL1:
   5:udp.c         **** #if 0
   6:udp.c         **** 	uint8_t socket = 0;
   7:udp.c         ****     uint8_t status = ETH_SR_CLOSED;
   8:udp.c         ****     uint8_t tries = 0;
   9:udp.c         **** 	
  10:udp.c         **** 	do {
  11:udp.c         **** 		socket = ETH_SocketOpen(port, ETH_PROTO_UDP);
  12:udp.c         **** 	
  13:udp.c         **** 		if (socket < ETH_MAX_SOCKETS) {
  14:udp.c         **** 			ETH_Send(ETH_SREG_SR, ETH_SOCKET_BASE(socket), 0, &status, 1);
  15:udp.c         **** 			if (status != ETH_SR_UDP) {
  16:udp.c         **** 				ETH_SocketClose(socket,0);
  17:udp.c         **** 				socket = 0xFF;
  18:udp.c         **** 			}
  19:udp.c         **** 		}
  20:udp.c         **** 		++tries;
  21:udp.c         **** 	} while ( (tries < 5) && ( status != ETH_SR_UDP ) );
  22:udp.c         **** 	
  23:udp.c         **** 	return socket;
ARM GAS  C:\Users\d3bug\AppData\Local\Temp\ccKWUL56.s 			page 2


  24:udp.c         **** #endif
  25:udp.c         **** }
  35              		.loc 1 25 0
  36 0000 7047     		bx	lr
  37              		.cfi_endproc
  38              	.LFE0:
  39              		.size	w5500_udp_open, .-w5500_udp_open
  40 0002 00BF     		.section	.text.w5500_udp_send,"ax",%progbits
  41              		.align	2
  42              		.global	w5500_udp_send
  43              		.thumb
  44              		.thumb_func
  45              		.type	w5500_udp_send, %function
  46              	w5500_udp_send:
  47              	.LFB1:
  26:udp.c         **** 
  27:udp.c         **** uint16_t w5500_udp_send(socket_n socket, uint16_t ip, uint16_t port,
  28:udp.c         ****                         uint8_t *data, size_t data_size, uint8_t flags)
  29:udp.c         **** {
  48              		.loc 1 29 0
  49              		.cfi_startproc
  50              		@ args = 8, pretend = 0, frame = 0
  51              		@ frame_needed = 0, uses_anonymous_args = 0
  52              		@ link register save eliminated.
  53              	.LVL2:
  54              	.LVL3:
  30:udp.c         **** #if 0
  31:udp.c         **** 	uint16_t tx_length = ETH_GetTxLength(socket,len,flags);
  32:udp.c         **** 	
  33:udp.c         **** 	port = CYSWAP_ENDIAN16(port); // fix endian-ness
  34:udp.c         ****     
  35:udp.c         **** 	// setup destination information
  36:udp.c         **** 	ETH_Send(ETH_SREG_DIPR,ETH_SOCKET_BASE(socket),1,(uint8*)&ip,4);
  37:udp.c         **** 	ETH_Send(ETH_SREG_DPORT, ETH_SOCKET_BASE(socket),1,(uint8*)&port,2);
  38:udp.c         **** 	ETH_WriteTxData(socket, buffer, tx_length, flags);
  39:udp.c         **** 	
  40:udp.c         **** 	return tx_length;
  41:udp.c         **** #endif
  42:udp.c         **** }
  55              		.loc 1 42 0
  56 0000 7047     		bx	lr
  57              		.cfi_endproc
  58              	.LFE1:
  59              		.size	w5500_udp_send, .-w5500_udp_send
  60 0002 00BF     		.section	.text.w5500_udp_receive,"ax",%progbits
  61              		.align	2
  62              		.global	w5500_udp_receive
  63              		.thumb
  64              		.thumb_func
  65              		.type	w5500_udp_receive, %function
  66              	w5500_udp_receive:
  67              	.LFB2:
  43:udp.c         **** 
  44:udp.c         **** uint16_t w5500_udp_receive(socket_n socket, uint16_t ip, uint16_t port,
  45:udp.c         ****                            uint8_t *data, size_t data_size, uint8_t flags)
  46:udp.c         **** {
  68              		.loc 1 46 0
ARM GAS  C:\Users\d3bug\AppData\Local\Temp\ccKWUL56.s 			page 3


  69              		.cfi_startproc
  70              		@ args = 8, pretend = 0, frame = 0
  71              		@ frame_needed = 0, uses_anonymous_args = 0
  72              		@ link register save eliminated.
  73              	.LVL4:
  74              	.LVL5:
  47:udp.c         **** #if 0
  48:udp.c         **** 	uint16_t rx_size = 0;
  49:udp.c         ****     uint16_t bytes = 0;
  50:udp.c         ****     uint16_t ptr = 0;
  51:udp.c         **** 	
  52:udp.c         **** 	// request the length of the data block available for reading, but, add
  53:udp.c         **** 	// the header size (8 bytes) to the length of data requested to account
  54:udp.c         **** 	// for the header sitting in the Rx Buffers.
  55:udp.c         **** 	do {
  56:udp.c         **** 		rx_size = ETH_RxDataReady( socket );
  57:udp.c         **** 	} while ( ( 8 > rx_size ) && ( flags & ETH_TXRX_FLG_WAIT ) );
  58:udp.c         **** 	
  59:udp.c         **** 	// if there is data to read from the buffer...
  60:udp.c         **** 	if ( 7 < rx_size ) {
  61:udp.c         **** 		// calculate the number of bytes to receive using the available data
  62:udp.c         **** 		// and the requested length of data.
  63:udp.c         **** 		bytes = ( rx_size > len ) ? len : rx_size;
  64:udp.c         **** 		// Read the starting memory pointer address, and endian correct
  65:udp.c         **** 		ETH_Send( ETH_SREG_RX_RD, ETH_SOCKET_BASE(socket),0,(uint8*)&ptr,2);
  66:udp.c         **** 		ptr = CYSWAP_ENDIAN16( ptr );
  67:udp.c         **** 		// Read the UDP header block from the memory
  68:udp.c         **** 		ETH_Send( ptr,ETH_RX_BASE(socket),0,header,8);
  69:udp.c         **** 		ptr += 8;
  70:udp.c         **** 		// read the number of bytes to read from the UDP header
  71:udp.c         **** 		bytes = header[6];
  72:udp.c         **** 		bytes = ( bytes << 8 ) + header[7];
  73:udp.c         **** 		
  74:udp.c         **** 		// Retrieve the length of data from the received UDP packet, starting
  75:udp.c         **** 		// right after the end of the packet header.
  76:udp.c         **** 		ETH_Send( ptr, ETH_RX_BASE(socket),0,buffer,bytes);
  77:udp.c         **** 		// Calculate the new buffer pointer location, endian correct, and
  78:udp.c         **** 		// update the pointer register within the W5500 socket registers
  79:udp.c         **** 		ptr += bytes;
  80:udp.c         **** 		ptr = CYSWAP_ENDIAN16( ptr );
  81:udp.c         **** 		ETH_Send(ETH_SREG_RX_RD, ETH_SOCKET_BASE(socket),1,(uint8*)&ptr,2);
  82:udp.c         **** 		// when all of the available data was read from the message, execute
  83:udp.c         **** 		// the receive command
  84:udp.c         **** 		ETH_ExecuteSocketCommand( socket, ETH_CR_RECV );
  85:udp.c         **** 		
  86:udp.c         **** 	}
  87:udp.c         **** 	
  88:udp.c         **** 	return bytes;
  89:udp.c         **** #endif
  90:udp.c         **** }
  75              		.loc 1 90 0
  76 0000 7047     		bx	lr
  77              		.cfi_endproc
  78              	.LFE2:
  79              		.size	w5500_udp_receive, .-w5500_udp_receive
  80 0002 00BF     		.text
  81              	.Letext0:
ARM GAS  C:\Users\d3bug\AppData\Local\Temp\ccKWUL56.s 			page 4


  82              		.file 2 "c:\\program files (x86)\\cypress\\psoc creator\\4.2\\psoc creator\\import\\gnu\\arm\\5.4.
  83              		.file 3 "c:\\program files (x86)\\cypress\\psoc creator\\4.2\\psoc creator\\import\\gnu\\arm\\5.4.
  84              		.file 4 "c:\\program files (x86)\\cypress\\psoc creator\\4.2\\psoc creator\\import\\gnu\\arm\\5.4.
  85              		.file 5 "common.h"