ARM GAS  C:\Users\d3bug\AppData\Local\Temp\ccVUeuFg.s 			page 1


   1              		.syntax unified
   2              		.cpu cortex-m3
   3              		.fpu softvfp
   4              		.eabi_attribute 20, 1
   5              		.eabi_attribute 21, 1
   6              		.eabi_attribute 23, 3
   7              		.eabi_attribute 24, 1
   8              		.eabi_attribute 25, 1
   9              		.eabi_attribute 26, 1
  10              		.eabi_attribute 30, 1
  11              		.eabi_attribute 34, 1
  12              		.eabi_attribute 18, 4
  13              		.thumb
  14              		.syntax unified
  15              		.file	"W5500.c"
  16              		.text
  17              	.Ltext0:
  18              		.cfi_sections	.debug_frame
  19              		.section	.text.wiz_soft_reset,"ax",%progbits
  20              		.align	2
  21              		.global	wiz_soft_reset
  22              		.thumb
  23              		.thumb_func
  24              		.type	wiz_soft_reset, %function
  25              	wiz_soft_reset:
  26              	.LFB63:
  27              		.file 1 "W5500.c"
   1:W5500.c       **** #include "project.h"
   2:W5500.c       **** 
   3:W5500.c       **** #include "W5500.h"
   4:W5500.c       **** #include "common.h"
   5:W5500.c       **** #include "hal_spi.h"
   6:W5500.c       **** 
   7:W5500.c       **** void wiz_soft_reset(void)
   8:W5500.c       **** {
  28              		.loc 1 8 0
  29              		.cfi_startproc
  30              		@ args = 0, pretend = 0, frame = 0
  31              		@ frame_needed = 0, uses_anonymous_args = 0
  32 0000 08B5     		push	{r3, lr}
  33              		.cfi_def_cfa_offset 8
  34              		.cfi_offset 3, -8
  35              		.cfi_offset 14, -4
   9:W5500.c       ****     /* Reset the W5500, this can be done with a command or the /RST pin,
  10:W5500.c       ****      * the component will handle this depending if the user provide a /RST pin. */
  11:W5500.c       ****     W5500_spi_write_byte(BLOCK_COMMON_REGISTER, SOCKET_REG_MODE, 0x80);
  36              		.loc 1 11 0
  37 0002 8022     		movs	r2, #128
  38 0004 0021     		movs	r1, #0
  39 0006 0846     		mov	r0, r1
  40 0008 FFF7FEFF 		bl	W5500_spi_write_byte
  41              	.LVL0:
  42 000c 08BD     		pop	{r3, pc}
  43              		.cfi_endproc
  44              	.LFE63:
  45              		.size	wiz_soft_reset, .-wiz_soft_reset
  46 000e 00BF     		.section	.text.wiz_hard_reset,"ax",%progbits
ARM GAS  C:\Users\d3bug\AppData\Local\Temp\ccVUeuFg.s 			page 2


  47              		.align	2
  48              		.global	wiz_hard_reset
  49              		.thumb
  50              		.thumb_func
  51              		.type	wiz_hard_reset, %function
  52              	wiz_hard_reset:
  53              	.LFB64:
  12:W5500.c       **** }
  13:W5500.c       **** 
  14:W5500.c       **** void wiz_hard_reset(void)
  15:W5500.c       **** {
  54              		.loc 1 15 0
  55              		.cfi_startproc
  56              		@ args = 0, pretend = 0, frame = 0
  57              		@ frame_needed = 0, uses_anonymous_args = 0
  58 0000 08B5     		push	{r3, lr}
  59              		.cfi_def_cfa_offset 8
  60              		.cfi_offset 3, -8
  61              		.cfi_offset 14, -4
  16:W5500.c       ****     RST_Write(0);
  62              		.loc 1 16 0
  63 0002 0020     		movs	r0, #0
  64 0004 FFF7FEFF 		bl	RST_Write
  65              	.LVL1:
  17:W5500.c       ****     CyDelay(50);
  66              		.loc 1 17 0
  67 0008 3220     		movs	r0, #50
  68 000a FFF7FEFF 		bl	CyDelay
  69              	.LVL2:
  18:W5500.c       ****     RST_Write(1);
  70              		.loc 1 18 0
  71 000e 0120     		movs	r0, #1
  72 0010 FFF7FEFF 		bl	RST_Write
  73              	.LVL3:
  74 0014 08BD     		pop	{r3, pc}
  75              		.cfi_endproc
  76              	.LFE64:
  77              		.size	wiz_hard_reset, .-wiz_hard_reset
  78 0016 00BF     		.text
  79              	.Letext0:
  80              		.file 2 "c:\\program files (x86)\\cypress\\psoc creator\\4.2\\psoc creator\\import\\gnu\\arm\\5.4.
  81              		.file 3 "c:\\program files (x86)\\cypress\\psoc creator\\4.2\\psoc creator\\import\\gnu\\arm\\5.4.
  82              		.file 4 "common.h"
  83              		.file 5 "hal_spi.h"
  84              		.file 6 "Generated_Source\\PSoC5/RST.h"
  85              		.file 7 "Generated_Source\\PSoC5/CyLib.h"
  86              		.file 8 "Generated_Source\\PSoC5/core_cm3.h"